00000000  EB55              jmp short 0x57
00000002  AF                scasw
00000003  17                pop ss
00000004  97                xchg ax,di
00000005  17                pop ss
00000006  B717              mov bh,0x17
00000008  BF178F            mov di,0x8f17
0000000B  17                pop ss
0000000C  97                xchg ax,di
0000000D  17                pop ss
0000000E  9F                lahf
0000000F  17                pop ss
00000010  A7                cmpsw
00000011  17                pop ss
00000012  C7                db 0xc7
00000013  17                pop ss
00000014  C7                db 0xc7
00000015  18C7              sbb bh,al
00000017  19F1              sbb cx,si
00000019  1DC71A            sbb ax,0x1ac7
0000001C  C7                db 0xc7
0000001D  1BC7              sbb ax,di
0000001F  1CD1              sbb al,0xd1
00000021  1DD91D            sbb ax,0x1dd9
00000024  E11D              loope 0x43
00000026  E91DC7            jmp 0xc746
00000029  1D3830            sbb ax,0x3038
0000002C  38367469          cmp [0x6974],dh
00000030  6E                outsb
00000031  7920              jns 0x53
00000033  42                inc dx
00000034  49                dec cx
00000035  4F                dec di
00000036  53                push bx
00000037  205265            and [bp+si+0x65],dl
0000003A  7669              jna 0xa5
0000003C  7369              jnc 0xa7
0000003E  6F                outsw
0000003F  6E                outsb
00000040  2031              and [bx+di],dh
00000042  2E363200          xor al,[ss:bx+si]
00000046  00EA              add dl,ch
00000048  0001              add [bx+di],al
0000004A  00F0              add al,dh
0000004C  3033              xor [bp+di],dh
0000004E  2F                das
0000004F  3038              xor [bx+si],bh
00000051  2F                das
00000052  3134              xor [si],si
00000054  00FE              add dh,bh
00000056  00BC00F0          add [si-0x1000],bh
0000005A  8ED4              mov ss,sp
0000005C  0E                push cs
0000005D  07                pop es
0000005E  50                push ax
0000005F  FC                cld
00000060  31C0              xor ax,ax
00000062  BF1800            mov di,0x18
00000065  AB                stosw
00000066  BF3100            mov di,0x31
00000069  AA                stosb
0000006A  2E88167515        mov [cs:0x1575],dl
0000006F  52                push dx
00000070  BAB803            mov dx,0x3b8
00000073  B000              mov al,0x0
00000075  EE                out dx,al
00000076  BAB403            mov dx,0x3b4
00000079  B001              mov al,0x1
0000007B  EE                out dx,al
0000007C  BAB503            mov dx,0x3b5
0000007F  B02D              mov al,0x2d
00000081  EE                out dx,al
00000082  BAB403            mov dx,0x3b4
00000085  B006              mov al,0x6
00000087  EE                out dx,al
00000088  BAB503            mov dx,0x3b5
0000008B  B057              mov al,0x57
0000008D  EE                out dx,al
0000008E  5A                pop dx
0000008F  58                pop ax
00000090  2E803E731000      cmp byte [cs:0x1073],0x0
00000096  7403              jz 0x9b
00000098  E9A700            jmp 0x142
0000009B  2EC606731001      mov byte [cs:0x1073],0x1
000000A1  89CA              mov dx,cx
000000A3  89C1              mov cx,ax
000000A5  2E89166110        mov [cs:0x1061],dx
000000AA  2E890E6310        mov [cs:0x1063],cx
000000AF  83F900            cmp cx,byte +0x0
000000B2  7409              jz 0xbd
000000B4  2EC7065F100200    mov word [cs:0x105f],0x2
000000BB  EB15              jmp short 0xd2
000000BD  83FA00            cmp dx,byte +0x0
000000C0  7409              jz 0xcb
000000C2  2EC7065F100200    mov word [cs:0x105f],0x2
000000C9  EB07              jmp short 0xd2
000000CB  2EC7065F100100    mov word [cs:0x105f],0x1
000000D2  89C8              mov ax,cx
000000D4  2EC70667100100    mov word [cs:0x1067],0x1
000000DB  2EC70669100100    mov word [cs:0x1069],0x1
000000E2  83FA00            cmp dx,byte +0x0
000000E5  770B              ja 0xf2
000000E7  83F83F            cmp ax,byte +0x3f
000000EA  7706              ja 0xf2
000000EC  2EA36510          mov [cs:0x1065],ax
000000F0  EB10              jmp short 0x102
000000F2  B93F00            mov cx,0x3f
000000F5  F7F1              div cx
000000F7  2EA36710          mov [cs:0x1067],ax
000000FB  2EC70665103F00    mov word [cs:0x1065],0x3f
00000102  BA0000            mov dx,0x0
00000105  2EA16710          mov ax,[cs:0x1067]
00000109  3D0004            cmp ax,0x400
0000010C  7702              ja 0x110
0000010E  EB10              jmp short 0x120
00000110  B90004            mov cx,0x400
00000113  F7F1              div cx
00000115  2EA36910          mov [cs:0x1069],ax
00000119  2EC70667100004    mov word [cs:0x1067],0x400
00000120  2EA16910          mov ax,[cs:0x1069]
00000124  2EA24110          mov [cs:0x1041],al
00000128  2EA16710          mov ax,[cs:0x1067]
0000012C  2EA33F10          mov [cs:0x103f],ax
00000130  2EA16510          mov ax,[cs:0x1065]
00000134  2EA24D10          mov [cs:0x104d],al
00000138  2EFF0E6710        dec word [cs:0x1067]
0000013D  2EFF0E6910        dec word [cs:0x1069]
00000142  B80000            mov ax,0x0
00000145  50                push ax
00000146  9D                popf
00000147  0E                push cs
00000148  0E                push cs
00000149  1F                pop ds
0000014A  17                pop ss
0000014B  BC00F0            mov sp,0xf000
0000014E  FC                cld
0000014F  31C0              xor ax,ax
00000151  8EC0              mov es,ax
00000153  31FF              xor di,di
00000155  B90002            mov cx,0x200
00000158  F3AB              rep stosw
0000015A  BF0000            mov di,0x0
0000015D  BED816            mov si,0x16d8
00000160  8B0E5217          mov cx,[0x1752]
00000164  F3A4              rep movsb
00000166  B93F10            mov cx,0x103f
00000169  26890E0401        mov [es:0x104],cx
0000016E  B900F0            mov cx,0xf000
00000171  26890E0601        mov [es:0x106],cx
00000176  B8FFFF            mov ax,0xffff
00000179  8EC0              mov es,ax
0000017B  BF0000            mov di,0x0
0000017E  BE4701            mov si,0x147
00000181  B91000            mov cx,0x10
00000184  F3A4              rep movsb
00000186  B84000            mov ax,0x40
00000189  8EC0              mov es,ax
0000018B  BF0000            mov di,0x0
0000018E  BED914            mov si,0x14d9
00000191  B90001            mov cx,0x100
00000194  F3A4              rep movsb
00000196  B800B8            mov ax,0xb800
00000199  8EC0              mov es,ax
0000019B  BF0000            mov di,0x0
0000019E  B9D007            mov cx,0x7d0
000001A1  B80007            mov ax,0x700
000001A4  F3AB              rep stosw
000001A6  B800C8            mov ax,0xc800
000001A9  8EC0              mov es,ax
000001AB  BF0000            mov di,0x0
000001AE  B9D007            mov cx,0x7d0
000001B1  B80007            mov ax,0x700
000001B4  F3AB              rep stosw
000001B6  BA6100            mov dx,0x61
000001B9  B000              mov al,0x0
000001BB  EE                out dx,al
000001BC  BA6000            mov dx,0x60
000001BF  EE                out dx,al
000001C0  BA6400            mov dx,0x64
000001C3  EE                out dx,al
000001C4  BA0000            mov dx,0x0
000001C7  B0FF              mov al,0xff
000001C9  42                inc dx
000001CA  83FA40            cmp dx,byte +0x40
000001CD  74FA              jz 0x1c9
000001CF  83FA42            cmp dx,byte +0x42
000001D2  74F5              jz 0x1c9
000001D4  81FAB803          cmp dx,0x3b8
000001D8  74EF              jz 0x1c9
000001DA  83FA60            cmp dx,byte +0x60
000001DD  74EA              jz 0x1c9
000001DF  83FA61            cmp dx,byte +0x61
000001E2  74E5              jz 0x1c9
000001E4  83FA64            cmp dx,byte +0x64
000001E7  74E0              jz 0x1c9
000001E9  EE                out dx,al
000001EA  81FAFF0F          cmp dx,0xfff
000001EE  7CD9              jl 0x1c9
000001F0  B000              mov al,0x0
000001F2  BADA03            mov dx,0x3da
000001F5  EE                out dx,al
000001F6  BABA03            mov dx,0x3ba
000001F9  EE                out dx,al
000001FA  BAB803            mov dx,0x3b8
000001FD  EE                out dx,al
000001FE  BABC03            mov dx,0x3bc
00000201  EE                out dx,al
00000202  BA6200            mov dx,0x62
00000205  EE                out dx,al
00000206  0E                push cs
00000207  07                pop es
00000208  BBF11E            mov bx,0x1ef1
0000020B  0F0126A115        smsw [0x15a1]
00000210  1F                pop ds
00000211  2EA38C17          mov [cs:0x178c],ax
00000215  B80000            mov ax,0x0
00000218  8EC0              mov es,ax
0000021A  B80102            mov ax,0x201
0000021D  B600              mov dh,0x0
0000021F  2E8A167515        mov dl,[cs:0x1575]
00000224  B90100            mov cx,0x1
00000227  BB007C            mov bx,0x7c00
0000022A  CD13              int 0x13
0000022C  EA007C0000        jmp 0x0:0x7c00
00000231  1E                push ds
00000232  06                push es
00000233  50                push ax
00000234  53                push bx
00000235  55                push bp
00000236  0E                push cs
00000237  1F                pop ds
00000238  BB4000            mov bx,0x40
0000023B  8EC3              mov es,bx
0000023D  26A1A600          mov ax,[es:0xa6]
00000241  26C606A70000      mov byte [es:0xa7],0x0
00000247  2EC6068E1700      mov byte [cs:0x178e],0x0
0000024D  F6C404            test ah,0x4
00000250  7503              jnz 0x255
00000252  E91D01            jmp 0x372
00000255  26C606170000      mov byte [es:0x17],0x0
0000025B  26C606180000      mov byte [es:0x18],0x0
00000261  2EC6068E1701      mov byte [cs:0x178e],0x1
00000267  F6C440            test ah,0x40
0000026A  7406              jz 0x272
0000026C  2EC6068E1702      mov byte [cs:0x178e],0x2
00000272  89C3              mov bx,ax
00000274  80E707            and bh,0x7
00000277  81FB2F05          cmp bx,0x52f
0000027B  7420              jz 0x29d
0000027D  81FB3005          cmp bx,0x530
00000281  741A              jz 0x29d
00000283  81FB3305          cmp bx,0x533
00000287  7423              jz 0x2ac
00000289  81FB3405          cmp bx,0x534
0000028D  741D              jz 0x2ac
0000028F  81FB3105          cmp bx,0x531
00000293  7426              jz 0x2bb
00000295  81FB3205          cmp bx,0x532
00000299  7420              jz 0x2bb
0000029B  EB2D              jmp short 0x2ca
0000029D  B036              mov al,0x36
0000029F  80E440            and ah,0x40
000002A2  00E0              add al,ah
000002A4  00E0              add al,ah
000002A6  E8940E            call 0x113d
000002A9  E98A02            jmp 0x536
000002AC  B038              mov al,0x38
000002AE  80E440            and ah,0x40
000002B1  00E0              add al,ah
000002B3  00E0              add al,ah
000002B5  E8850E            call 0x113d
000002B8  E97B02            jmp 0x536
000002BB  B01D              mov al,0x1d
000002BD  80E440            and ah,0x40
000002C0  00E0              add al,ah
000002C2  00E0              add al,ah
000002C4  E8760E            call 0x113d
000002C7  E96C02            jmp 0x536
000002CA  F6C408            test ah,0x8
000002CD  740C              jz 0x2db
000002CF  268006170008      add byte [es:0x17],0x8
000002D5  268006180002      add byte [es:0x18],0x2
000002DB  F6C420            test ah,0x20
000002DE  7406              jz 0x2e6
000002E0  268006170004      add byte [es:0x17],0x4
000002E6  F6C410            test ah,0x10
000002E9  7406              jz 0x2f1
000002EB  268006170001      add byte [es:0x17],0x1
000002F1  80E401            and ah,0x1
000002F4  3D2501            cmp ax,0x125
000002F7  7603              jna 0x2fc
000002F9  E93A02            jmp 0x536
000002FC  3D1A01            cmp ax,0x11a
000002FF  7211              jc 0x312
00000301  2DDF00            sub ax,0xdf
00000304  83F845            cmp ax,byte +0x45
00000307  7203              jc 0x30c
00000309  83C012            add ax,byte +0x12
0000030C  88C7              mov bh,al
0000030E  B000              mov al,0x0
00000310  EB46              jmp short 0x358
00000312  3D1601            cmp ax,0x116
00000315  7213              jc 0x32a
00000317  3D1901            cmp ax,0x119
0000031A  770E              ja 0x32a
0000031C  2D1601            sub ax,0x116
0000031F  BB8017            mov bx,0x1780
00000322  2ED7              cs xlatb
00000324  88C7              mov bh,al
00000326  B000              mov al,0x0
00000328  EB2E              jmp short 0x358
0000032A  3D1101            cmp ax,0x111
0000032D  7213              jc 0x342
0000032F  2D1101            sub ax,0x111
00000332  BB7C17            mov bx,0x177c
00000335  D7                xlatb
00000336  88C7              mov bh,al
00000338  B000              mov al,0x0
0000033A  26C606A60000      mov byte [es:0xa6],0x0
00000340  EB16              jmp short 0x358
00000342  3D0001            cmp ax,0x100
00000345  7203              jc 0x34a
00000347  E9EC01            jmp 0x536
0000034A  3C7F              cmp al,0x7f
0000034C  7502              jnz 0x350
0000034E  B008              mov al,0x8
00000350  50                push ax
00000351  BBD815            mov bx,0x15d8
00000354  D7                xlatb
00000355  88C7              mov bh,al
00000357  58                pop ax
00000358  80C780            add bh,0x80
0000035B  2E803E8E1702      cmp byte [cs:0x178e],0x2
00000361  7407              jz 0x36a
00000363  80EF80            sub bh,0x80
00000366  26A2A600          mov [es:0xa6],al
0000036A  88F8              mov al,bh
0000036C  E8CE0D            call 0x113d
0000036F  E9C401            jmp 0x536
00000372  3C00              cmp al,0x0
00000374  7503              jnz 0x379
00000376  E9BD01            jmp 0x536
00000379  3C7F              cmp al,0x7f
0000037B  7508              jnz 0x385
0000037D  B008              mov al,0x8
0000037F  26C606A60008      mov byte [es:0xa6],0x8
00000385  26803EA00001      cmp byte [es:0xa0],0x1
0000038B  7503              jnz 0x390
0000038D  E92801            jmp 0x4b8
00000390  3C01              cmp al,0x1
00000392  751A              jnz 0x3ae
00000394  26C606170008      mov byte [es:0x17],0x8
0000039A  26C606180002      mov byte [es:0x18],0x2
000003A0  B038              mov al,0x38
000003A2  E8980D            call 0x113d
000003A5  26C606A30001      mov byte [es:0xa3],0x1
000003AB  E98801            jmp 0x536
000003AE  3C06              cmp al,0x6
000003B0  7509              jnz 0x3bb
000003B2  26C606A00001      mov byte [es:0xa0],0x1
000003B8  E97B01            jmp 0x536
000003BB  26803EA50001      cmp byte [es:0xa5],0x1
000003C1  26C606A50000      mov byte [es:0xa5],0x0
000003C7  7509              jnz 0x3d2
000003C9  26C606A60000      mov byte [es:0xa6],0x0
000003CF  E90E01            jmp 0x4e0
000003D2  3CE0              cmp al,0xe0
000003D4  26C606A50001      mov byte [es:0xa5],0x1
000003DA  7503              jnz 0x3df
000003DC  E95701            jmp 0x536
000003DF  26C606A50000      mov byte [es:0xa5],0x0
000003E5  3C1B              cmp al,0x1b
000003E7  751C              jnz 0x405
000003E9  26803EA40001      cmp byte [es:0xa4],0x1
000003EF  750B              jnz 0x3fc
000003F1  26C606A6001B      mov byte [es:0xa6],0x1b
000003F7  B001              mov al,0x1
000003F9  E8240D            call 0x1120
000003FC  26C606A40001      mov byte [es:0xa4],0x1
00000402  E93101            jmp 0x536
00000405  26803EA40001      cmp byte [es:0xa4],0x1
0000040B  7524              jnz 0x431
0000040D  3C5B              cmp al,0x5b
0000040F  7417              jz 0x428
00000411  26C606A6001B      mov byte [es:0xa6],0x1b
00000417  B001              mov al,0x1
00000419  E8040D            call 0x1120
0000041C  26C606A40000      mov byte [es:0xa4],0x0
00000422  26A0A600          mov al,[es:0xa6]
00000426  EB09              jmp short 0x431
00000428  26C606A40002      mov byte [es:0xa4],0x2
0000042E  E90501            jmp 0x536
00000431  26803EA40002      cmp byte [es:0xa4],0x2
00000437  751B              jnz 0x454
00000439  26C606170000      mov byte [es:0x17],0x0
0000043F  26C606180000      mov byte [es:0x18],0x0
00000445  2C41              sub al,0x41
00000447  BB7C17            mov bx,0x177c
0000044A  D7                xlatb
0000044B  26C606A60000      mov byte [es:0xa6],0x0
00000451  E98C00            jmp 0x4e0
00000454  26C606A50000      mov byte [es:0xa5],0x0
0000045A  BB5816            mov bx,0x1658
0000045D  D7                xlatb
0000045E  50                push ax
0000045F  268A26A300        mov ah,[es:0xa3]
00000464  C0E403            shl ah,byte 0x3
00000467  00E0              add al,ah
00000469  26803EA6001A      cmp byte [es:0xa6],0x1a
0000046F  7731              ja 0x4a2
00000471  26803EA60000      cmp byte [es:0xa6],0x0
00000477  7429              jz 0x4a2
00000479  26803EA6000D      cmp byte [es:0xa6],0xd
0000047F  7421              jz 0x4a2
00000481  26803EA6000A      cmp byte [es:0xa6],0xa
00000487  7419              jz 0x4a2
00000489  26803EA60008      cmp byte [es:0xa6],0x8
0000048F  7411              jz 0x4a2
00000491  26803EA60009      cmp byte [es:0xa6],0x9
00000497  7409              jz 0x4a2
00000499  0404              add al,0x4
0000049B  50                push ax
0000049C  B01D              mov al,0x1d
0000049E  E89C0C            call 0x113d
000004A1  58                pop ax
000004A2  26A21700          mov [es:0x17],al
000004A6  C0EC02            shr ah,byte 0x2
000004A9  2688261800        mov [es:0x18],ah
000004AE  58                pop ax
000004AF  A801              test al,0x1
000004B1  7405              jz 0x4b8
000004B3  B036              mov al,0x36
000004B5  E8850C            call 0x113d
000004B8  26A0A600          mov al,[es:0xa6]
000004BC  BBD815            mov bx,0x15d8
000004BF  D7                xlatb
000004C0  26803EA00001      cmp byte [es:0xa0],0x1
000004C6  7518              jnz 0x4e0
000004C8  26803EA60001      cmp byte [es:0xa6],0x1
000004CE  7410              jz 0x4e0
000004D0  26803EA60006      cmp byte [es:0xa6],0x6
000004D6  7408              jz 0x4e0
000004D8  26C606A60000      mov byte [es:0xa6],0x0
000004DE  0439              add al,0x39
000004E0  26C606A40000      mov byte [es:0xa4],0x0
000004E6  26C606A20000      mov byte [es:0xa2],0x0
000004EC  26803EA30001      cmp byte [es:0xa3],0x1
000004F2  7506              jnz 0x4fa
000004F4  26C606A60000      mov byte [es:0xa6],0x0
000004FA  E8230C            call 0x1120
000004FD  3CE0              cmp al,0xe0
000004FF  7435              jz 0x536
00000501  26F606170001      test byte [es:0x17],0x1
00000507  7405              jz 0x50e
00000509  B0B6              mov al,0xb6
0000050B  E82F0C            call 0x113d
0000050E  26F606170004      test byte [es:0x17],0x4
00000514  7405              jz 0x51b
00000516  B09D              mov al,0x9d
00000518  E8220C            call 0x113d
0000051B  26A0A300          mov al,[es:0xa3]
0000051F  26C606A30000      mov byte [es:0xa3],0x0
00000525  26C606A00000      mov byte [es:0xa0],0x0
0000052B  3C01              cmp al,0x1
0000052D  7402              jz 0x531
0000052F  EB05              jmp short 0x536
00000531  B0B8              mov al,0xb8
00000533  E8070C            call 0x113d
00000536  5D                pop bp
00000537  5B                pop bx
00000538  58                pop ax
00000539  07                pop es
0000053A  1F                pop ds
0000053B  CF                iret
0000053C  06                push es
0000053D  50                push ax
0000053E  53                push bx
0000053F  55                push bp
00000540  E460              in al,0x60
00000542  3C80              cmp al,0x80
00000544  732D              jnc 0x573
00000546  3C36              cmp al,0x36
00000548  7429              jz 0x573
0000054A  3C38              cmp al,0x38
0000054C  7425              jz 0x573
0000054E  3C1D              cmp al,0x1d
00000550  7421              jz 0x573
00000552  BB4000            mov bx,0x40
00000555  8EC3              mov es,bx
00000557  88C7              mov bh,al
00000559  26A0A600          mov al,[es:0xa6]
0000055D  268B2E1C00        mov bp,[es:0x1c]
00000562  26884600          mov [es:bp+0x0],al
00000566  26887E01          mov [es:bp+0x1],bh
0000056A  2683061C0002      add word [es:0x1c],byte +0x2
00000570  E8470A            call 0xfba
00000573  B001              mov al,0x1
00000575  E664              out 0x64,al
00000577  5D                pop bp
00000578  5B                pop bx
00000579  58                pop ax
0000057A  07                pop es
0000057B  CF                iret
0000057C  50                push ax
0000057D  53                push bx
0000057E  52                push dx
0000057F  55                push bp
00000580  06                push es
00000581  51                push cx
00000582  57                push di
00000583  1E                push ds
00000584  56                push si
00000585  E8D60B            call 0x115e
00000588  0E                push cs
00000589  07                pop es
0000058A  BBF11E            mov bx,0x1ef1
0000058D  0F                db 0x0f
0000058E  012EA115          add [0x15a1],bp
00000592  1F                pop ds
00000593  2E2B068C17        sub ax,[cs:0x178c]
00000598  83F800            cmp ax,byte +0x0
0000059B  7D05              jnl 0x5a2
0000059D  05E803            add ax,0x3e8
000005A0  EBF6              jmp short 0x598
000005A2  BB4000            mov bx,0x40
000005A5  8EC3              mov es,bx
000005A7  BA0000            mov dx,0x0
000005AA  BBA904            mov bx,0x4a9
000005AD  F7E3              mul bx
000005AF  268B1EA800        mov bx,[es:0xa8]
000005B4  83FB00            cmp bx,byte +0x0
000005B7  7503              jnz 0x5bc
000005B9  BBFFFF            mov bx,0xffff
000005BC  F7F3              div bx
000005BE  83F800            cmp ax,byte +0x0
000005C1  746A              jz 0x62d
000005C3  2601066C00        add [es:0x6c],ax
000005C8  2683166E0000      adc word [es:0x6e],byte +0x0
000005CE  50                push ax
000005CF  CD08              int 0x8
000005D1  58                pop ax
000005D2  48                dec ax
000005D3  83F800            cmp ax,byte +0x0
000005D6  75F6              jnz 0x5ce
000005D8  2EA1151F          mov ax,[cs:0x1f15]
000005DC  2EA38C17          mov [cs:0x178c],ax
000005E0  2E803E8E1700      cmp byte [cs:0x178e],0x0
000005E6  7545              jnz 0x62d
000005E8  26803E9F0000      cmp byte [es:0x9f],0x0
000005EE  740F              jz 0x5ff
000005F0  26A09F00          mov al,[es:0x9f]
000005F4  26C6069F0000      mov byte [es:0x9f],0x0
000005FA  0480              add al,0x80
000005FC  E83E0B            call 0x113d
000005FF  26803EA40001      cmp byte [es:0xa4],0x1
00000605  7526              jnz 0x62d
00000607  26803EA20001      cmp byte [es:0xa2],0x1
0000060D  7407              jz 0x616
0000060F  26FE06A200        inc byte [es:0xa2]
00000614  EB17              jmp short 0x62d
00000616  26C606A40000      mov byte [es:0xa4],0x0
0000061C  26C606A20000      mov byte [es:0xa2],0x0
00000622  26C606A6001B      mov byte [es:0xa6],0x1b
00000628  B001              mov al,0x1
0000062A  E8F30A            call 0x1120
0000062D  BABA03            mov dx,0x3ba
00000630  EC                in al,dx
00000631  3480              xor al,0x80
00000633  EE                out dx,al
00000634  5E                pop si
00000635  1F                pop ds
00000636  5F                pop di
00000637  59                pop cx
00000638  07                pop es
00000639  5D                pop bp
0000063A  5A                pop dx
0000063B  5B                pop bx
0000063C  58                pop ax
0000063D  CF                iret
0000063E  CD1C              int 0x1c
00000640  CF                iret
00000641  80FC00            cmp ah,0x0
00000644  7449              jz 0x68f
00000646  80FC01            cmp ah,0x1
00000649  7503              jnz 0x64e
0000064B  E9E800            jmp 0x736
0000064E  80FC02            cmp ah,0x2
00000651  7503              jnz 0x656
00000653  E90601            jmp 0x75c
00000656  80FC03            cmp ah,0x3
00000659  7503              jnz 0x65e
0000065B  E95401            jmp 0x7b2
0000065E  80FC06            cmp ah,0x6
00000661  7503              jnz 0x666
00000663  E96101            jmp 0x7c7
00000666  80FC07            cmp ah,0x7
00000669  7503              jnz 0x66e
0000066B  E97B02            jmp 0x8e9
0000066E  80FC08            cmp ah,0x8
00000671  7503              jnz 0x676
00000673  E99603            jmp 0xa0c
00000676  80FC09            cmp ah,0x9
00000679  7503              jnz 0x67e
0000067B  E9F703            jmp 0xa75
0000067E  80FC0E            cmp ah,0xe
00000681  7503              jnz 0x686
00000683  E9B803            jmp 0xa3e
00000686  80FC0F            cmp ah,0xf
00000689  7503              jnz 0x68e
0000068B  E90705            jmp 0xb95
0000068E  CF                iret
0000068F  52                push dx
00000690  51                push cx
00000691  53                push bx
00000692  06                push es
00000693  3C04              cmp al,0x4
00000695  743D              jz 0x6d4
00000697  3C05              cmp al,0x5
00000699  7439              jz 0x6d4
0000069B  3C06              cmp al,0x6
0000069D  7435              jz 0x6d4
0000069F  50                push ax
000006A0  BAB803            mov dx,0x3b8
000006A3  B000              mov al,0x0
000006A5  EE                out dx,al
000006A6  BAB403            mov dx,0x3b4
000006A9  B001              mov al,0x1
000006AB  EE                out dx,al
000006AC  BAB503            mov dx,0x3b5
000006AF  B02D              mov al,0x2d
000006B1  EE                out dx,al
000006B2  BAB403            mov dx,0x3b4
000006B5  B006              mov al,0x6
000006B7  EE                out dx,al
000006B8  BAB503            mov dx,0x3b5
000006BB  B057              mov al,0x57
000006BD  EE                out dx,al
000006BE  BA4000            mov dx,0x40
000006C1  8EC2              mov es,dx
000006C3  26C606AC0000      mov byte [es:0xac],0x0
000006C9  58                pop ax
000006CA  3C07              cmp al,0x7
000006CC  743D              jz 0x70b
000006CE  3C02              cmp al,0x2
000006D0  7439              jz 0x70b
000006D2  EB39              jmp short 0x70d
000006D4  BA4000            mov dx,0x40
000006D7  8EC2              mov es,dx
000006D9  26A24900          mov [es:0x49],al
000006DD  26C606AC0001      mov byte [es:0xac],0x1
000006E3  BAB403            mov dx,0x3b4
000006E6  B001              mov al,0x1
000006E8  EE                out dx,al
000006E9  BAB503            mov dx,0x3b5
000006EC  B028              mov al,0x28
000006EE  EE                out dx,al
000006EF  BAB403            mov dx,0x3b4
000006F2  B006              mov al,0x6
000006F4  EE                out dx,al
000006F5  BAB503            mov dx,0x3b5
000006F8  B064              mov al,0x64
000006FA  EE                out dx,al
000006FB  BAB803            mov dx,0x3b8
000006FE  B08A              mov al,0x8a
00000700  EE                out dx,al
00000701  B707              mov bh,0x7
00000703  E85009            call 0x1056
00000706  B83000            mov ax,0x30
00000709  EB26              jmp short 0x731
0000070B  B003              mov al,0x3
0000070D  BB4000            mov bx,0x40
00000710  8EC3              mov es,bx
00000712  26A24900          mov [es:0x49],al
00000716  B707              mov bh,0x7
00000718  E83B09            call 0x1056
0000071B  26803E490006      cmp byte [es:0x49],0x6
00000721  7404              jz 0x727
00000723  B030              mov al,0x30
00000725  EB02              jmp short 0x729
00000727  B03F              mov al,0x3f
00000729  50                push ax
0000072A  BAB803            mov dx,0x3b8
0000072D  B000              mov al,0x0
0000072F  EE                out dx,al
00000730  58                pop ax
00000731  07                pop es
00000732  5B                pop bx
00000733  59                pop cx
00000734  5A                pop dx
00000735  CF                iret
00000736  1E                push ds
00000737  50                push ax
00000738  51                push cx
00000739  B84000            mov ax,0x40
0000073C  8ED8              mov ds,ax
0000073E  C606A10001        mov byte [0xa1],0x1
00000743  80E560            and ch,0x60
00000746  80FD20            cmp ch,0x20
00000749  750A              jnz 0x755
0000074B  C606A10000        mov byte [0xa1],0x0
00000750  E86D0C            call 0x13c0
00000753  EB03              jmp short 0x758
00000755  E84F0C            call 0x13a7
00000758  59                pop cx
00000759  58                pop ax
0000075A  1F                pop ds
0000075B  CF                iret
0000075C  1E                push ds
0000075D  50                push ax
0000075E  B84000            mov ax,0x40
00000761  8ED8              mov ds,ax
00000763  88365100          mov [0x51],dh
00000767  88369E00          mov [0x9e],dh
0000076B  88165000          mov [0x50],dl
0000076F  88169D00          mov [0x9d],dl
00000773  80FE18            cmp dh,0x18
00000776  7605              jna 0x77d
00000778  E8450C            call 0x13c0
0000077B  EB32              jmp short 0x7af
0000077D  80FA4F            cmp dl,0x4f
00000780  7605              jna 0x787
00000782  E83B0C            call 0x13c0
00000785  EB28              jmp short 0x7af
00000787  B01B              mov al,0x1b
00000789  0F00B05B0F        jmpe word [bx+si+0xf5b]
0000078E  0088F0FE          add [bx+si-0x110],cl
00000792  C0E80F            shr al,byte 0xf
00000795  08B03B0F          or [bx+si+0xf3b],dh
00000799  0088D0FE          add [bx+si-0x130],cl
0000079D  C0E804            shr al,byte 0x4
000007A0  08B0480F          or [bx+si+0xf48],dh
000007A4  00803EA1          add [bx+si-0x5ec2],al
000007A8  0001              add [bx+di],al
000007AA  7503              jnz 0x7af
000007AC  E8F80B            call 0x13a7
000007AF  58                pop ax
000007B0  1F                pop ds
000007B1  CF                iret
000007B2  06                push es
000007B3  B94000            mov cx,0x40
000007B6  8EC1              mov es,cx
000007B8  B90706            mov cx,0x607
000007BB  268A165000        mov dl,[es:0x50]
000007C0  268A365100        mov dh,[es:0x51]
000007C5  07                pop es
000007C6  CF                iret
000007C7  53                push bx
000007C8  51                push cx
000007C9  55                push bp
000007CA  50                push ax
000007CB  89DD              mov bp,bx
000007CD  B10C              mov cl,0xc
000007CF  D3CD              ror bp,cl
000007D1  83E507            and bp,byte +0x7
000007D4  2E8A9E5417        mov bl,[cs:bp+0x1754]
000007D9  80C30A            add bl,0xa
000007DC  B01B              mov al,0x1b
000007DE  0F00B05B0F        jmpe word [bx+si+0xf5b]
000007E3  0088D8E8          add [bx+si-0x1728],cl
000007E7  BC07B0            mov sp,0xb007
000007EA  6D                insw
000007EB  0F00585D          ltr [bx+si+0x5d]
000007EF  59                pop cx
000007F0  5B                pop bx
000007F1  3C00              cmp al,0x0
000007F3  7513              jnz 0x808
000007F5  83F900            cmp cx,byte +0x0
000007F8  750E              jnz 0x808
000007FA  80FA4F            cmp dl,0x4f
000007FD  7209              jc 0x808
000007FF  80FE18            cmp dh,0x18
00000802  7204              jc 0x808
00000804  E84F08            call 0x1056
00000807  CF                iret
00000808  50                push ax
00000809  53                push bx
0000080A  88C3              mov bl,al
0000080C  80FB00            cmp bl,0x0
0000080F  7502              jnz 0x813
00000811  B319              mov bl,0x19
00000813  B01B              mov al,0x1b
00000815  0F00B05B0F        jmpe word [bx+si+0xf5b]
0000081A  0080FD00          add [bx+si+0xfd],al
0000081E  7402              jz 0x822
00000820  EB05              jmp short 0x827
00000822  80FE18            cmp dh,0x18
00000825  7412              jz 0x839
00000827  88E8              mov al,ch
00000829  FEC0              inc al
0000082B  E87707            call 0xfa5
0000082E  B03B              mov al,0x3b
00000830  0F0088F0FE        str [bx+si-0x110]
00000835  C0E86C            shr al,byte 0x6c
00000838  07                pop es
00000839  B072              mov al,0x72
0000083B  0F00B01B0F        jmpe word [bx+si+0xf1b]
00000840  00B05B0F          add [bx+si+0xf5b],dh
00000844  0080FB01          add [bx+si+0x1fb],al
00000848  7504              jnz 0x84e
0000084A  B04D              mov al,0x4d
0000084C  EB07              jmp short 0x855
0000084E  88D8              mov al,bl
00000850  E85207            call 0xfa5
00000853  B053              mov al,0x53
00000855  0F005B58          ltr [bp+di+0x58]
00000859  50                push ax
0000085A  53                push bx
0000085B  52                push dx
0000085C  06                push es
0000085D  B84000            mov ax,0x40
00000860  8EC0              mov es,ax
00000862  B402              mov ah,0x2
00000864  B700              mov bh,0x0
00000866  268A365100        mov dh,[es:0x51]
0000086B  268A165000        mov dl,[es:0x50]
00000870  CD10              int 0x10
00000872  07                pop es
00000873  5A                pop dx
00000874  5B                pop bx
00000875  58                pop ax
00000876  53                push bx
00000877  50                push ax
00000878  1E                push ds
00000879  06                push es
0000087A  51                push cx
0000087B  52                push dx
0000087C  56                push si
0000087D  57                push di
0000087E  2EC606861701      mov byte [cs:0x1786],0x1
00000884  53                push bx
00000885  BB00B8            mov bx,0xb800
00000888  8EC3              mov es,bx
0000088A  8EDB              mov ds,bx
0000088C  5B                pop bx
0000088D  88C3              mov bl,al
0000088F  80FB00            cmp bl,0x0
00000892  744C              jz 0x8e0
00000894  53                push bx
00000895  52                push dx
00000896  B80000            mov ax,0x0
00000899  88E8              mov al,ch
0000089B  BB5000            mov bx,0x50
0000089E  F7E3              mul bx
000008A0  00C8              add al,cl
000008A2  80D400            adc ah,0x0
000008A5  BB0200            mov bx,0x2
000008A8  F7E3              mul bx
000008AA  5A                pop dx
000008AB  5B                pop bx
000008AC  89C7              mov di,ax
000008AE  89C6              mov si,ax
000008B0  81C6A000          add si,0xa0
000008B4  B80000            mov ax,0x0
000008B7  00D0              add al,dl
000008B9  80D400            adc ah,0x0
000008BC  40                inc ax
000008BD  28C8              sub al,cl
000008BF  80DC00            sbb ah,0x0
000008C2  38F5              cmp ch,dh
000008C4  730B              jnc 0x8d1
000008C6  51                push cx
000008C7  89C1              mov cx,ax
000008C9  FC                cld
000008CA  F3A5              rep movsw
000008CC  59                pop cx
000008CD  FEC5              inc ch
000008CF  EBC3              jmp short 0x894
000008D1  51                push cx
000008D2  89C1              mov cx,ax
000008D4  88FC              mov ah,bh
000008D6  B000              mov al,0x0
000008D8  FC                cld
000008D9  F3AB              rep stosw
000008DB  59                pop cx
000008DC  FECB              dec bl
000008DE  EBAF              jmp short 0x88f
000008E0  5F                pop di
000008E1  5E                pop si
000008E2  5A                pop dx
000008E3  59                pop cx
000008E4  07                pop es
000008E5  1F                pop ds
000008E6  58                pop ax
000008E7  5B                pop bx
000008E8  CF                iret
000008E9  53                push bx
000008EA  51                push cx
000008EB  55                push bp
000008EC  50                push ax
000008ED  89DD              mov bp,bx
000008EF  B10C              mov cl,0xc
000008F1  D3CD              ror bp,cl
000008F3  83E507            and bp,byte +0x7
000008F6  2E8A9E5417        mov bl,[cs:bp+0x1754]
000008FB  80C30A            add bl,0xa
000008FE  B01B              mov al,0x1b
00000900  0F00B05B0F        jmpe word [bx+si+0xf5b]
00000905  0088D8E8          add [bx+si-0x1728],cl
00000909  9A06B06D0F        call 0xf6d:0xb006
0000090E  00585D            add [bx+si+0x5d],bl
00000911  59                pop cx
00000912  5B                pop bx
00000913  3C00              cmp al,0x0
00000915  7513              jnz 0x92a
00000917  83F900            cmp cx,byte +0x0
0000091A  750E              jnz 0x92a
0000091C  80FA4F            cmp dl,0x4f
0000091F  7509              jnz 0x92a
00000921  80FE18            cmp dh,0x18
00000924  7C04              jl 0x92a
00000926  E82D07            call 0x1056
00000929  CF                iret
0000092A  50                push ax
0000092B  53                push bx
0000092C  BB0000            mov bx,0x0
0000092F  88C3              mov bl,al
00000931  80FB00            cmp bl,0x0
00000934  7502              jnz 0x938
00000936  B319              mov bl,0x19
00000938  B01B              mov al,0x1b
0000093A  0F00B05B0F        jmpe word [bx+si+0xf5b]
0000093F  0080FD00          add [bx+si+0xfd],al
00000943  7402              jz 0x947
00000945  EB05              jmp short 0x94c
00000947  80FE18            cmp dh,0x18
0000094A  7412              jz 0x95e
0000094C  88E8              mov al,ch
0000094E  FEC0              inc al
00000950  E85206            call 0xfa5
00000953  B03B              mov al,0x3b
00000955  0F0088F0FE        str [bx+si-0x110]
0000095A  C0E847            shr al,byte 0x47
0000095D  06                push es
0000095E  B072              mov al,0x72
00000960  0F00B01B0F        jmpe word [bx+si+0xf1b]
00000965  00B05B0F          add [bx+si+0xf5b],dh
00000969  0080FB01          add [bx+si+0x1fb],al
0000096D  7504              jnz 0x973
0000096F  B044              mov al,0x44
00000971  EB07              jmp short 0x97a
00000973  88D8              mov al,bl
00000975  E82D06            call 0xfa5
00000978  B054              mov al,0x54
0000097A  0F005B58          ltr [bp+di+0x58]
0000097E  50                push ax
0000097F  53                push bx
00000980  52                push dx
00000981  06                push es
00000982  B84000            mov ax,0x40
00000985  8EC0              mov es,ax
00000987  B402              mov ah,0x2
00000989  B700              mov bh,0x0
0000098B  268A365100        mov dh,[es:0x51]
00000990  268A165000        mov dl,[es:0x50]
00000995  CD10              int 0x10
00000997  07                pop es
00000998  5A                pop dx
00000999  5B                pop bx
0000099A  58                pop ax
0000099B  50                push ax
0000099C  53                push bx
0000099D  1E                push ds
0000099E  06                push es
0000099F  51                push cx
000009A0  52                push dx
000009A1  56                push si
000009A2  57                push di
000009A3  2EC606861701      mov byte [cs:0x1786],0x1
000009A9  53                push bx
000009AA  BB00B8            mov bx,0xb800
000009AD  8EC3              mov es,bx
000009AF  8EDB              mov ds,bx
000009B1  5B                pop bx
000009B2  88C3              mov bl,al
000009B4  80FB00            cmp bl,0x0
000009B7  744A              jz 0xa03
000009B9  53                push bx
000009BA  52                push dx
000009BB  B80000            mov ax,0x0
000009BE  88F0              mov al,dh
000009C0  BB5000            mov bx,0x50
000009C3  F7E3              mul bx
000009C5  00C8              add al,cl
000009C7  80D400            adc ah,0x0
000009CA  BB0200            mov bx,0x2
000009CD  F7E3              mul bx
000009CF  5A                pop dx
000009D0  5B                pop bx
000009D1  89C7              mov di,ax
000009D3  89C6              mov si,ax
000009D5  81EEA000          sub si,0xa0
000009D9  B80000            mov ax,0x0
000009DC  00D0              add al,dl
000009DE  80D400            adc ah,0x0
000009E1  40                inc ax
000009E2  28C8              sub al,cl
000009E4  80DC00            sbb ah,0x0
000009E7  38F5              cmp ch,dh
000009E9  730A              jnc 0x9f5
000009EB  51                push cx
000009EC  89C1              mov cx,ax
000009EE  F3A5              rep movsw
000009F0  59                pop cx
000009F1  FECE              dec dh
000009F3  EBC4              jmp short 0x9b9
000009F5  51                push cx
000009F6  89C1              mov cx,ax
000009F8  88FC              mov ah,bh
000009FA  B000              mov al,0x0
000009FC  F3AB              rep stosw
000009FE  59                pop cx
000009FF  FECB              dec bl
00000A01  EBB1              jmp short 0x9b4
00000A03  5F                pop di
00000A04  5E                pop si
00000A05  5A                pop dx
00000A06  59                pop cx
00000A07  07                pop es
00000A08  1F                pop ds
00000A09  5B                pop bx
00000A0A  58                pop ax
00000A0B  CF                iret
00000A0C  1E                push ds
00000A0D  06                push es
00000A0E  53                push bx
00000A0F  52                push dx
00000A10  BB4000            mov bx,0x40
00000A13  8EC3              mov es,bx
00000A15  BB00C0            mov bx,0xc000
00000A18  8EDB              mov ds,bx
00000A1A  BBA000            mov bx,0xa0
00000A1D  B80000            mov ax,0x0
00000A20  26A05100          mov al,[es:0x51]
00000A24  F7E3              mul bx
00000A26  BB0000            mov bx,0x0
00000A29  268A1E5000        mov bl,[es:0x50]
00000A2E  01D8              add ax,bx
00000A30  01D8              add ax,bx
00000A32  89C3              mov bx,ax
00000A34  B407              mov ah,0x7
00000A36  8A07              mov al,[bx]
00000A38  5A                pop dx
00000A39  5B                pop bx
00000A3A  07                pop es
00000A3B  1F                pop ds
00000A3C  CF                iret
00000A3D  CF                iret
00000A3E  1E                push ds
00000A3F  06                push es
00000A40  51                push cx
00000A41  52                push dx
00000A42  50                push ax
00000A43  55                push bp
00000A44  53                push bx
00000A45  50                push ax
00000A46  88C1              mov cl,al
00000A48  B507              mov ch,0x7
00000A4A  BB4000            mov bx,0x40
00000A4D  8EC3              mov es,bx
00000A4F  BB00C0            mov bx,0xc000
00000A52  8EDB              mov ds,bx
00000A54  BBA000            mov bx,0xa0
00000A57  B80000            mov ax,0x0
00000A5A  26A05100          mov al,[es:0x51]
00000A5E  F7E3              mul bx
00000A60  BB0000            mov bx,0x0
00000A63  268A1E5000        mov bl,[es:0x50]
00000A68  D1E3              shl bx,1
00000A6A  01C3              add bx,ax
00000A6C  890F              mov [bx],cx
00000A6E  58                pop ax
00000A6F  50                push ax
00000A70  0F00E9            verw cx
00000A73  9F                lahf
00000A74  001E0651          add [0x5106],bl
00000A78  52                push dx
00000A79  50                push ax
00000A7A  55                push bp
00000A7B  53                push bx
00000A7C  50                push ax
00000A7D  51                push cx
00000A7E  88C1              mov cl,al
00000A80  88DD              mov ch,bl
00000A82  BB4000            mov bx,0x40
00000A85  8EC3              mov es,bx
00000A87  BB00C0            mov bx,0xc000
00000A8A  8EDB              mov ds,bx
00000A8C  BBA000            mov bx,0xa0
00000A8F  B80000            mov ax,0x0
00000A92  26A05100          mov al,[es:0x51]
00000A96  F7E3              mul bx
00000A98  BB0000            mov bx,0x0
00000A9B  268A1E5000        mov bl,[es:0x50]
00000AA0  D1E3              shl bx,1
00000AA2  01C3              add bx,ax
00000AA4  890F              mov [bx],cx
00000AA6  88EB              mov bl,ch
00000AA8  88DF              mov bh,bl
00000AAA  80E307            and bl,0x7
00000AAD  89DD              mov bp,bx
00000AAF  81E5FF00          and bp,0xff
00000AB3  2E8A9E5417        mov bl,[cs:bp+0x1754]
00000AB8  80E708            and bh,0x8
00000ABB  C0EF03            shr bh,byte 0x3
00000ABE  B01B              mov al,0x1b
00000AC0  0F00B05B0F        jmpe word [bx+si+0xf5b]
00000AC5  0088F8E8          add [bx+si-0x1708],cl
00000AC9  DA04              fiadd dword [si]
00000ACB  B03B              mov al,0x3b
00000ACD  0F0088D8E8        str [bx+si-0x1728]
00000AD2  D104              rol word [si],1
00000AD4  88EB              mov bl,ch
00000AD6  88DF              mov bh,bl
00000AD8  C0EB04            shr bl,byte 0x4
00000ADB  80E307            and bl,0x7
00000ADE  89DD              mov bp,bx
00000AE0  81E5FF00          and bp,0xff
00000AE4  2E8A9E5417        mov bl,[cs:bp+0x1754]
00000AE9  80C30A            add bl,0xa
00000AEC  B03B              mov al,0x3b
00000AEE  0F0088D8E8        str [bx+si-0x1728]
00000AF3  B004              mov al,0x4
00000AF5  B06D              mov al,0x6d
00000AF7  0F005958          ltr [bx+di+0x58]
00000AFB  50                push ax
00000AFC  0F004983          str [bx+di-0x7d]
00000B00  F9                stc
00000B01  0075F8            add [di-0x8],dh
00000B04  B01B              mov al,0x1b
00000B06  0F00B05B0F        jmpe word [bx+si+0xf5b]
00000B0B  00B0300F          add [bx+si+0xf30],dh
00000B0F  00B06D0F          add [bx+si+0xf6d],dh
00000B13  005806            add [bx+si+0x6],bl
00000B16  1F                pop ds
00000B17  3C08              cmp al,0x8
00000B19  751B              jnz 0xb36
00000B1B  FE0E5000          dec byte [0x50]
00000B1F  FE0E9D00          dec byte [0x9d]
00000B23  803E500000        cmp byte [0x50],0x0
00000B28  7F63              jg 0xb8d
00000B2A  C606500000        mov byte [0x50],0x0
00000B2F  C6069D0000        mov byte [0x9d],0x0
00000B34  EB57              jmp short 0xb8d
00000B36  3C0A              cmp al,0xa
00000B38  7421              jz 0xb5b
00000B3A  3C0D              cmp al,0xd
00000B3C  750C              jnz 0xb4a
00000B3E  C606500000        mov byte [0x50],0x0
00000B43  C6069D0000        mov byte [0x9d],0x0
00000B48  EB43              jmp short 0xb8d
00000B4A  FE065000          inc byte [0x50]
00000B4E  FE069D00          inc byte [0x9d]
00000B52  803E500050        cmp byte [0x50],0x50
00000B57  7D02              jnl 0xb5b
00000B59  EB32              jmp short 0xb8d
00000B5B  C606500000        mov byte [0x50],0x0
00000B60  C6069D0000        mov byte [0x9d],0x0
00000B65  FE065100          inc byte [0x51]
00000B69  FE069E00          inc byte [0x9e]
00000B6D  803E510019        cmp byte [0x51],0x19
00000B72  7219              jc 0xb8d
00000B74  C606510018        mov byte [0x51],0x18
00000B79  C6069E0018        mov byte [0x9e],0x18
00000B7E  B707              mov bh,0x7
00000B80  B001              mov al,0x1
00000B82  B90000            mov cx,0x0
00000B85  BA4F18            mov dx,0x184f
00000B88  9C                pushf
00000B89  0E                push cs
00000B8A  E8E9FC            call 0x876
00000B8D  5B                pop bx
00000B8E  5D                pop bp
00000B8F  58                pop ax
00000B90  5A                pop dx
00000B91  59                pop cx
00000B92  07                pop es
00000B93  1F                pop ds
00000B94  CF                iret
00000B95  06                push es
00000B96  B84000            mov ax,0x40
00000B99  8EC0              mov es,ax
00000B9B  B450              mov ah,0x50
00000B9D  26A04900          mov al,[es:0x49]
00000BA1  B700              mov bh,0x0
00000BA3  07                pop es
00000BA4  CF                iret
00000BA5  2EA1E914          mov ax,[cs:0x14e9]
00000BA9  CF                iret
00000BAA  B88002            mov ax,0x280
00000BAD  CF                iret
00000BAE  80FC00            cmp ah,0x0
00000BB1  7462              jz 0xc15
00000BB3  80FC01            cmp ah,0x1
00000BB6  7460              jz 0xc18
00000BB8  80FA80            cmp dl,0x80
00000BBB  750D              jnz 0xbca
00000BBD  2E833E5F1002      cmp word [cs:0x105f],byte +0x2
00000BC3  7D05              jnl 0xbca
00000BC5  B40F              mov ah,0xf
00000BC7  E97E05            jmp 0x1148
00000BCA  80FC02            cmp ah,0x2
00000BCD  7454              jz 0xc23
00000BCF  80FC03            cmp ah,0x3
00000BD2  7503              jnz 0xbd7
00000BD4  E9B500            jmp 0xc8c
00000BD7  80FC04            cmp ah,0x4
00000BDA  7503              jnz 0xbdf
00000BDC  E91001            jmp 0xcef
00000BDF  80FC05            cmp ah,0x5
00000BE2  7503              jnz 0xbe7
00000BE4  E97F01            jmp 0xd66
00000BE7  80FC08            cmp ah,0x8
00000BEA  7503              jnz 0xbef
00000BEC  E90501            jmp 0xcf4
00000BEF  80FC0C            cmp ah,0xc
00000BF2  7503              jnz 0xbf7
00000BF4  E95501            jmp 0xd4c
00000BF7  80FC10            cmp ah,0x10
00000BFA  7503              jnz 0xbff
00000BFC  E95201            jmp 0xd51
00000BFF  80FC15            cmp ah,0x15
00000C02  7503              jnz 0xc07
00000C04  E96401            jmp 0xd6b
00000C07  80FC16            cmp ah,0x16
00000C0A  7503              jnz 0xc0f
00000C0C  E98401            jmp 0xd93
00000C0F  B401              mov ah,0x1
00000C11  E93405            jmp 0x1148
00000C14  CF                iret
00000C15  E93905            jmp 0x1151
00000C18  2E8A261A15        mov ah,[cs:0x151a]
00000C1D  7402              jz 0xc21
00000C1F  F9                stc
00000C20  CF                iret
00000C21  F8                clc
00000C22  CF                iret
00000C23  52                push dx
00000C24  80FA00            cmp dl,0x0
00000C27  740B              jz 0xc34
00000C29  80FA80            cmp dl,0x80
00000C2C  7415              jz 0xc43
00000C2E  5A                pop dx
00000C2F  B401              mov ah,0x1
00000C31  E91405            jmp 0x1148
00000C34  56                push si
00000C35  55                push bp
00000C36  2E3A0E3810        cmp cl,[cs:0x1038]
00000C3B  7741              ja 0xc7e
00000C3D  5D                pop bp
00000C3E  5E                pop si
00000C3F  B201              mov dl,0x1
00000C41  EB02              jmp short 0xc45
00000C43  B200              mov dl,0x0
00000C45  56                push si
00000C46  55                push bp
00000C47  E89F03            call 0xfe9
00000C4A  B400              mov ah,0x0
00000C4C  C1E009            shl ax,byte 0x9
00000C4F  0F02C1            lar ax,cx
00000C52  E809B4            call 0xc05e
00000C55  023C              add bh,[si]
00000C57  007424            add [si+0x24],dh
00000C5A  83FA01            cmp dx,byte +0x1
00000C5D  751A              jnz 0xc79
00000C5F  83F901            cmp cx,byte +0x1
00000C62  7515              jnz 0xc79
00000C64  50                push ax
00000C65  268A4718          mov al,[es:bx+0x18]
00000C69  3C09              cmp al,0x9
00000C6B  7407              jz 0xc74
00000C6D  3C12              cmp al,0x12
00000C6F  7403              jz 0xc74
00000C71  58                pop ax
00000C72  EB05              jmp short 0xc79
00000C74  2EA23810          mov [cs:0x1038],al
00000C78  58                pop ax
00000C79  F8                clc
00000C7A  B400              mov ah,0x0
00000C7C  EB03              jmp short 0xc81
00000C7E  F9                stc
00000C7F  B404              mov ah,0x4
00000C81  5D                pop bp
00000C82  5E                pop si
00000C83  5A                pop dx
00000C84  2E88261A15        mov [cs:0x151a],ah
00000C89  E9CE04            jmp 0x115a
00000C8C  52                push dx
00000C8D  80FA00            cmp dl,0x0
00000C90  740B              jz 0xc9d
00000C92  80FA80            cmp dl,0x80
00000C95  740A              jz 0xca1
00000C97  5A                pop dx
00000C98  B401              mov ah,0x1
00000C9A  E9AB04            jmp 0x1148
00000C9D  B201              mov dl,0x1
00000C9F  EB02              jmp short 0xca3
00000CA1  B200              mov dl,0x0
00000CA3  56                push si
00000CA4  55                push bp
00000CA5  51                push cx
00000CA6  57                push di
00000CA7  E83F03            call 0xfe9
00000CAA  80FA00            cmp dl,0x0
00000CAD  751B              jnz 0xcca
00000CAF  89E9              mov cx,bp
00000CB1  89F7              mov di,si
00000CB3  B400              mov ah,0x0
00000CB5  01C1              add cx,ax
00000CB7  83D700            adc di,byte +0x0
00000CBA  2E3B3E6110        cmp di,[cs:0x1061]
00000CBF  771E              ja 0xcdf
00000CC1  7207              jc 0xcca
00000CC3  2E3B0E6310        cmp cx,[cs:0x1063]
00000CC8  7715              ja 0xcdf
00000CCA  B400              mov ah,0x0
00000CCC  C1E009            shl ax,byte 0x9
00000CCF  0F03C1            lsl ax,cx
00000CD2  E809B4            call 0xc0de
00000CD5  033C              add di,[si]
00000CD7  007405            add [si+0x5],dh
00000CDA  F8                clc
00000CDB  B400              mov ah,0x0
00000CDD  EB03              jmp short 0xce2
00000CDF  F9                stc
00000CE0  B404              mov ah,0x4
00000CE2  5F                pop di
00000CE3  59                pop cx
00000CE4  5D                pop bp
00000CE5  5E                pop si
00000CE6  5A                pop dx
00000CE7  2E88261A15        mov [cs:0x151a],ah
00000CEC  E96B04            jmp 0x115a
00000CEF  B400              mov ah,0x0
00000CF1  E95D04            jmp 0x1151
00000CF4  80FA00            cmp dl,0x0
00000CF7  740F              jz 0xd08
00000CF9  80FA80            cmp dl,0x80
00000CFC  7428              jz 0xd26
00000CFE  B401              mov ah,0x1
00000D00  2E88261A15        mov [cs:0x151a],ah
00000D05  E94004            jmp 0x1148
00000D08  0E                push cs
00000D09  07                pop es
00000D0A  BF3410            mov di,0x1034
00000D0D  B80000            mov ax,0x0
00000D10  BB0400            mov bx,0x4
00000D13  B54F              mov ch,0x4f
00000D15  2E8A0E3810        mov cl,[cs:0x1038]
00000D1A  BA0101            mov dx,0x101
00000D1D  2EC6061A1500      mov byte [cs:0x151a],0x0
00000D23  E92B04            jmp 0x1151
00000D26  B80000            mov ax,0x0
00000D29  BB0000            mov bx,0x0
00000D2C  B201              mov dl,0x1
00000D2E  2E8A366910        mov dh,[cs:0x1069]
00000D33  2E8B0E6710        mov cx,[cs:0x1067]
00000D38  D0CD              ror ch,1
00000D3A  D0CD              ror ch,1
00000D3C  2E022E6510        add ch,[cs:0x1065]
00000D41  86E9              xchg ch,cl
00000D43  2EC6061A1500      mov byte [cs:0x151a],0x0
00000D49  E90504            jmp 0x1151
00000D4C  B400              mov ah,0x0
00000D4E  E90004            jmp 0x1151
00000D51  2E803E5F1002      cmp byte [cs:0x105f],0x2
00000D57  750A              jnz 0xd63
00000D59  80FA80            cmp dl,0x80
00000D5C  7505              jnz 0xd63
00000D5E  B400              mov ah,0x0
00000D60  E9EE03            jmp 0x1151
00000D63  E9E203            jmp 0x1148
00000D66  B400              mov ah,0x0
00000D68  E9E603            jmp 0x1151
00000D6B  80FA00            cmp dl,0x0
00000D6E  740F              jz 0xd7f
00000D70  80FA80            cmp dl,0x80
00000D73  740F              jz 0xd84
00000D75  B40F              mov ah,0xf
00000D77  2E88261A15        mov [cs:0x151a],ah
00000D7C  E9C903            jmp 0x1148
00000D7F  B401              mov ah,0x1
00000D81  E9CD03            jmp 0x1151
00000D84  B403              mov ah,0x3
00000D86  2E8B0E6110        mov cx,[cs:0x1061]
00000D8B  2E8B166310        mov dx,[cs:0x1063]
00000D90  E9BE03            jmp 0x1151
00000D93  B400              mov ah,0x0
00000D95  E9B903            jmp 0x1151
00000D98  80FC00            cmp ah,0x0
00000D9B  7403              jz 0xda0
00000D9D  E9A803            jmp 0x1148
00000DA0  B80000            mov ax,0x0
00000DA3  E9A203            jmp 0x1148
00000DA6  B486              mov ah,0x86
00000DA8  E99D03            jmp 0x1148
00000DAB  80FC00            cmp ah,0x0
00000DAE  7410              jz 0xdc0
00000DB0  80FC01            cmp ah,0x1
00000DB3  7439              jz 0xdee
00000DB5  80FC02            cmp ah,0x2
00000DB8  7458              jz 0xe12
00000DBA  80FC12            cmp ah,0x12
00000DBD  7461              jz 0xe20
00000DBF  CF                iret
00000DC0  06                push es
00000DC1  53                push bx
00000DC2  51                push cx
00000DC3  52                push dx
00000DC4  BB4000            mov bx,0x40
00000DC7  8EC3              mov es,bx
00000DC9  FA                cli
00000DCA  268B0E1C00        mov cx,[es:0x1c]
00000DCF  268B1E1A00        mov bx,[es:0x1a]
00000DD4  268B17            mov dx,[es:bx]
00000DD7  FB                sti
00000DD8  39D9              cmp cx,bx
00000DDA  74ED              jz 0xdc9
00000DDC  2683061A0002      add word [es:0x1a],byte +0x2
00000DE2  E8D501            call 0xfba
00000DE5  88F4              mov ah,dh
00000DE7  88D0              mov al,dl
00000DE9  5A                pop dx
00000DEA  59                pop cx
00000DEB  5B                pop bx
00000DEC  07                pop es
00000DED  CF                iret
00000DEE  06                push es
00000DEF  53                push bx
00000DF0  51                push cx
00000DF1  52                push dx
00000DF2  BB4000            mov bx,0x40
00000DF5  8EC3              mov es,bx
00000DF7  268B0E1C00        mov cx,[es:0x1c]
00000DFC  268B1E1A00        mov bx,[es:0x1a]
00000E01  268B17            mov dx,[es:bx]
00000E04  FB                sti
00000E05  39D9              cmp cx,bx
00000E07  88F4              mov ah,dh
00000E09  88D0              mov al,dl
00000E0B  5A                pop dx
00000E0C  59                pop cx
00000E0D  5B                pop bx
00000E0E  07                pop es
00000E0F  CA0200            retf 0x2
00000E12  06                push es
00000E13  53                push bx
00000E14  BB4000            mov bx,0x40
00000E17  8EC3              mov es,bx
00000E19  26A01700          mov al,[es:0x17]
00000E1D  5B                pop bx
00000E1E  07                pop es
00000E1F  CF                iret
00000E20  06                push es
00000E21  53                push bx
00000E22  BB4000            mov bx,0x40
00000E25  8EC3              mov es,bx
00000E27  26A01700          mov al,[es:0x17]
00000E2B  88C4              mov ah,al
00000E2D  5B                pop bx
00000E2E  07                pop es
00000E2F  CF                iret
00000E30  80FC01            cmp ah,0x1
00000E33  7403              jz 0xe38
00000E35  E91003            jmp 0x1148
00000E38  B401              mov ah,0x1
00000E3A  E90B03            jmp 0x1148
00000E3D  E902F3            jmp 0x142
00000E40  80FC00            cmp ah,0x0
00000E43  7416              jz 0xe5b
00000E45  80FC02            cmp ah,0x2
00000E48  7470              jz 0xeba
00000E4A  80FC04            cmp ah,0x4
00000E4D  7503              jnz 0xe52
00000E4F  E9A400            jmp 0xef6
00000E52  80FC0F            cmp ah,0xf
00000E55  7503              jnz 0xe5a
00000E57  E9D600            jmp 0xf30
00000E5A  CF                iret
00000E5B  50                push ax
00000E5C  53                push bx
00000E5D  1E                push ds
00000E5E  06                push es
00000E5F  0E                push cs
00000E60  0E                push cs
00000E61  1F                pop ds
00000E62  07                pop es
00000E63  BBF11E            mov bx,0x1ef1
00000E66  0F01B8B600        invlpg [bx+si+0xb6]
00000E6B  F726151F          mul word [0x1f15]
00000E6F  BB1027            mov bx,0x2710
00000E72  F7F3              div bx
00000E74  A3151F            mov [0x1f15],ax
00000E77  B8B600            mov ax,0xb6
00000E7A  F726F11E          mul word [0x1ef1]
00000E7E  BB0A00            mov bx,0xa
00000E81  BA0000            mov dx,0x0
00000E84  F7F3              div bx
00000E86  A3F11E            mov [0x1ef1],ax
00000E89  B84404            mov ax,0x444
00000E8C  F726F51E          mul word [0x1ef5]
00000E90  A3F51E            mov [0x1ef5],ax
00000E93  B8F0FF            mov ax,0xfff0
00000E96  F726F91E          mul word [0x1ef9]
00000E9A  0306151F          add ax,[0x1f15]
00000E9E  83D200            adc dx,byte +0x0
00000EA1  0306F11E          add ax,[0x1ef1]
00000EA5  83D200            adc dx,byte +0x0
00000EA8  0306F51E          add ax,[0x1ef5]
00000EAC  83D200            adc dx,byte +0x0
00000EAF  52                push dx
00000EB0  50                push ax
00000EB1  5A                pop dx
00000EB2  59                pop cx
00000EB3  07                pop es
00000EB4  1F                pop ds
00000EB5  5B                pop bx
00000EB6  58                pop ax
00000EB7  B000              mov al,0x0
00000EB9  CF                iret
00000EBA  1E                push ds
00000EBB  06                push es
00000EBC  50                push ax
00000EBD  53                push bx
00000EBE  0E                push cs
00000EBF  0E                push cs
00000EC0  1F                pop ds
00000EC1  07                pop es
00000EC2  BBF11E            mov bx,0x1ef1
00000EC5  0F01B80000        invlpg [bx+si+0x0]
00000ECA  8B0EF91E          mov cx,[0x1ef9]
00000ECE  E8A500            call 0xf76
00000ED1  88C7              mov bh,al
00000ED3  B80000            mov ax,0x0
00000ED6  8B0EF51E          mov cx,[0x1ef5]
00000EDA  E89900            call 0xf76
00000EDD  88C3              mov bl,al
00000EDF  B80000            mov ax,0x0
00000EE2  8B0EF11E          mov cx,[0x1ef1]
00000EE6  E88D00            call 0xf76
00000EE9  88C6              mov dh,al
00000EEB  B200              mov dl,0x0
00000EED  89D9              mov cx,bx
00000EEF  5B                pop bx
00000EF0  58                pop ax
00000EF1  07                pop es
00000EF2  1F                pop ds
00000EF3  E95B02            jmp 0x1151
00000EF6  1E                push ds
00000EF7  06                push es
00000EF8  53                push bx
00000EF9  50                push ax
00000EFA  0E                push cs
00000EFB  0E                push cs
00000EFC  1F                pop ds
00000EFD  07                pop es
00000EFE  BBF11E            mov bx,0x1ef1
00000F01  0F01B80019        invlpg [bx+si+0x1900]
00000F06  8B0E051F          mov cx,[0x1f05]
00000F0A  E86900            call 0xf76
00000F0D  89C1              mov cx,ax
00000F0F  51                push cx
00000F10  B80100            mov ax,0x1
00000F13  8B0E011F          mov cx,[0x1f01]
00000F17  E85C00            call 0xf76
00000F1A  88C6              mov dh,al
00000F1C  B80000            mov ax,0x0
00000F1F  8B0EFD1E          mov cx,[0x1efd]
00000F23  E85000            call 0xf76
00000F26  88C2              mov dl,al
00000F28  59                pop cx
00000F29  58                pop ax
00000F2A  5B                pop bx
00000F2B  07                pop es
00000F2C  1F                pop ds
00000F2D  E92102            jmp 0x1151
00000F30  E91E02            jmp 0x1151
00000F33  CF                iret
00000F34  DF02              fild word [bp+si]
00000F36  250212            and ax,0x1202
00000F39  1BFF              sbb di,di
00000F3B  54                push sp
00000F3C  F6                db 0xf6
00000F3D  0F08              invd
00000F3F  0000              add [bx+si],al
00000F41  0000              add [bx+si],al
00000F43  0000              add [bx+si],al
00000F45  0000              add [bx+si],al
00000F47  C00000            rol byte [bx+si],byte 0x0
00000F4A  0000              add [bx+si],al
00000F4C  0000              add [bx+si],al
00000F4E  0010              add [bx+si],dl
00000F50  00FE              add dh,bh
00000F52  41                inc cx
00000F53  43                inc bx
00000F54  2000              and [bx+si],al
00000F56  0000              add [bx+si],al
00000F58  0000              add [bx+si],al
00000F5A  0000              add [bx+si],al
00000F5C  0000              add [bx+si],al
00000F5E  0000              add [bx+si],al
00000F60  0000              add [bx+si],al
00000F62  0000              add [bx+si],al
00000F64  0000              add [bx+si],al
00000F66  0000              add [bx+si],al
00000F68  0000              add [bx+si],al
00000F6A  0000              add [bx+si],al
00000F6C  0000              add [bx+si],al
00000F6E  0000              add [bx+si],al
00000F70  0000              add [bx+si],al
00000F72  0000              add [bx+si],al
00000F74  00CF              add bh,cl
00000F76  53                push bx
00000F77  E32A              jcxz 0xfa3
00000F79  40                inc ax
00000F7A  88C7              mov bh,al
00000F7C  80E70F            and bh,0xf
00000F7F  80FF0A            cmp bh,0xa
00000F82  7503              jnz 0xf87
00000F84  83C006            add ax,byte +0x6
00000F87  88C7              mov bh,al
00000F89  80E7F0            and bh,0xf0
00000F8C  80FFA0            cmp bh,0xa0
00000F8F  7503              jnz 0xf94
00000F91  83C060            add ax,byte +0x60
00000F94  88E7              mov bh,ah
00000F96  80E70F            and bh,0xf
00000F99  80FF0A            cmp bh,0xa
00000F9C  7503              jnz 0xfa1
00000F9E  050006            add ax,0x600
00000FA1  E2D6              loop 0xf79
00000FA3  5B                pop bx
00000FA4  C3                ret
00000FA5  50                push ax
00000FA6  D40A              aam
00000FA8  053030            add ax,0x3030
00000FAB  80FC30            cmp ah,0x30
00000FAE  7406              jz 0xfb6
00000FB0  86E0              xchg ah,al
00000FB2  0F0086E00F        sldt [bp+0xfe0]
00000FB7  0058C3            add [bx+si-0x3d],bl
00000FBA  50                push ax
00000FBB  53                push bx
00000FBC  26A18200          mov ax,[es:0x82]
00000FC0  2639061A00        cmp [es:0x1a],ax
00000FC5  7C0A              jl 0xfd1
00000FC7  268B1E8000        mov bx,[es:0x80]
00000FCC  26891E1A00        mov [es:0x1a],bx
00000FD1  26A18200          mov ax,[es:0x82]
00000FD5  2639061C00        cmp [es:0x1c],ax
00000FDA  7C0A              jl 0xfe6
00000FDC  268B1E8000        mov bx,[es:0x80]
00000FE1  26891E1C00        mov [es:0x1c],bx
00000FE6  5B                pop bx
00000FE7  58                pop ax
00000FE8  C3                ret
00000FE9  50                push ax
00000FEA  53                push bx
00000FEB  51                push cx
00000FEC  52                push dx
00000FED  2E88167110        mov [cs:0x1071],dl
00000FF2  51                push cx
00000FF3  88CF              mov bh,cl
00000FF5  B106              mov cl,0x6
00000FF7  D2EF              shr bh,cl
00000FF9  88EB              mov bl,ch
00000FFB  2E803E711001      cmp byte [cs:0x1071],0x1
00001001  52                push dx
00001002  BA0000            mov dx,0x0
00001005  93                xchg ax,bx
00001006  7510              jnz 0x1018
00001008  D1E0              shl ax,1
0000100A  50                push ax
0000100B  31C0              xor ax,ax
0000100D  2EA03810          mov al,[cs:0x1038]
00001011  2EA36D10          mov [cs:0x106d],ax
00001015  58                pop ax
00001016  EB1A              jmp short 0x1032
00001018  2E8B2E6910        mov bp,[cs:0x1069]
0000101D  45                inc bp
0000101E  2E892E6F10        mov [cs:0x106f],bp
00001023  2EF7266F10        mul word [cs:0x106f]
00001028  2E8B2E6510        mov bp,[cs:0x1065]
0000102D  2E892E6D10        mov [cs:0x106d],bp
00001032  93                xchg ax,bx
00001033  5A                pop dx
00001034  86F2              xchg dh,dl
00001036  B600              mov dh,0x0
00001038  01D3              add bx,dx
0000103A  2EA16D10          mov ax,[cs:0x106d]
0000103E  F7E3              mul bx
00001040  59                pop cx
00001041  B500              mov ch,0x0
00001043  80E13F            and cl,0x3f
00001046  FEC9              dec cl
00001048  01C8              add ax,cx
0000104A  83D200            adc dx,byte +0x0
0000104D  89C5              mov bp,ax
0000104F  89D6              mov si,dx
00001051  5A                pop dx
00001052  59                pop cx
00001053  5B                pop bx
00001054  58                pop ax
00001055  C3                ret
00001056  50                push ax
00001057  B01B              mov al,0x1b
00001059  0F00B05B0F        jmpe word [bx+si+0xf5b]
0000105E  00B0720F          add [bx+si+0xf72],dh
00001062  00B01B0F          add [bx+si+0xf1b],dh
00001066  00B05B0F          add [bx+si+0xf5b],dh
0000106A  00B0300F          add [bx+si+0xf30],dh
0000106E  00B06D0F          add [bx+si+0xf6d],dh
00001072  005351            add [bp+di+0x51],dl
00001075  55                push bp
00001076  50                push ax
00001077  06                push es
00001078  89DD              mov bp,bx
0000107A  B10C              mov cl,0xc
0000107C  D3CD              ror bp,cl
0000107E  83E507            and bp,byte +0x7
00001081  2E8A9E5417        mov bl,[cs:bp+0x1754]
00001086  80C30A            add bl,0xa
00001089  B01B              mov al,0x1b
0000108B  0F00B05B0F        jmpe word [bx+si+0xf5b]
00001090  0088D8E8          add [bx+si-0x1728],cl
00001094  0FFF              ud0
00001096  B06D              mov al,0x6d
00001098  0F                db 0x0f
00001099  00B84000          add [bx+si+0x40],bh
0000109D  8EC0              mov es,ax
0000109F  26C606500000      mov byte [es:0x50],0x0
000010A5  26C6069D0000      mov byte [es:0x9d],0x0
000010AB  26C606510000      mov byte [es:0x51],0x0
000010B1  26C6069E0000      mov byte [es:0x9e],0x0
000010B7  07                pop es
000010B8  58                pop ax
000010B9  5D                pop bp
000010BA  59                pop cx
000010BB  5B                pop bx
000010BC  B01B              mov al,0x1b
000010BE  0F00B05B0F        jmpe word [bx+si+0xf5b]
000010C3  00B0320F          add [bx+si+0xf32],dh
000010C7  00B04A0F          add [bx+si+0xf4a],dh
000010CB  00B01B0F          add [bx+si+0xf1b],dh
000010CF  00B05B0F          add [bx+si+0xf5b],dh
000010D3  00B0310F          add [bx+si+0xf31],dh
000010D7  00B03B0F          add [bx+si+0xf3b],dh
000010DB  00B0310F          add [bx+si+0xf31],dh
000010DF  00B0480F          add [bx+si+0xf48],dh
000010E3  00065751          add [0x5157],al
000010E7  FC                cld
000010E8  B800B8            mov ax,0xb800
000010EB  8EC0              mov es,ax
000010ED  BF0000            mov di,0x0
000010F0  B000              mov al,0x0
000010F2  88FC              mov ah,bh
000010F4  B9D007            mov cx,0x7d0
000010F7  F3AB              rep stosw
000010F9  FC                cld
000010FA  BF00C8            mov di,0xc800
000010FD  8EC7              mov es,di
000010FF  BF0000            mov di,0x0
00001102  B9D007            mov cx,0x7d0
00001105  F3AB              rep stosw
00001107  FC                cld
00001108  BF00C0            mov di,0xc000
0000110B  8EC7              mov es,di
0000110D  BF0000            mov di,0x0
00001110  B9D007            mov cx,0x7d0
00001113  F3AB              rep stosw
00001115  59                pop cx
00001116  5F                pop di
00001117  07                pop es
00001118  58                pop ax
00001119  2EC606861701      mov byte [cs:0x1786],0x1
0000111F  C3                ret
00001120  50                push ax
00001121  26803E9F0000      cmp byte [es:0x9f],0x0
00001127  740B              jz 0x1134
00001129  26A09F00          mov al,[es:0x9f]
0000112D  0480              add al,0x80
0000112F  E80B00            call 0x113d
00001132  58                pop ax
00001133  50                push ax
00001134  26A29F00          mov [es:0x9f],al
00001138  E80200            call 0x113d
0000113B  58                pop ax
0000113C  C3                ret
0000113D  50                push ax
0000113E  B001              mov al,0x1
00001140  E664              out 0x64,al
00001142  58                pop ax
00001143  E660              out 0x60,al
00001145  CD09              int 0x9
00001147  C3                ret
00001148  87EC              xchg bp,sp
0000114A  834E0401          or word [bp+0x4],byte +0x1
0000114E  87EC              xchg bp,sp
00001150  CF                iret
00001151  87EC              xchg bp,sp
00001153  836604FE          and word [bp+0x4],byte -0x2
00001157  87EC              xchg bp,sp
00001159  CF                iret
0000115A  72EC              jc 0x1148
0000115C  EBF3              jmp short 0x1151
0000115E  2E803E851701      cmp byte [cs:0x1785],0x1
00001164  741B              jz 0x1181
00001166  2EFE068417        inc byte [cs:0x1784]
0000116B  2E803E841708      cmp byte [cs:0x1784],0x8
00001171  750E              jnz 0x1181
00001173  2EC606841700      mov byte [cs:0x1784],0x0
00001179  BAB803            mov dx,0x3b8
0000117C  EC                in al,dx
0000117D  A802              test al,0x2
0000117F  7401              jz 0x1182
00001181  C3                ret
00001182  2EC606851701      mov byte [cs:0x1785],0x1
00001188  FB                sti
00001189  BB4000            mov bx,0x40
0000118C  8EDB              mov ds,bx
0000118E  8B3EAD00          mov di,[0xad]
00001192  D1E7              shl di,1
00001194  57                push di
00001195  BB00B8            mov bx,0xb800
00001198  8EC3              mov es,bx
0000119A  B9D007            mov cx,0x7d0
0000119D  B80007            mov ax,0x700
000011A0  FC                cld
000011A1  F3AF              repe scasw
000011A3  5F                pop di
000011A4  7503              jnz 0x11a9
000011A6  E9F101            jmp 0x139a
000011A9  2E803E861701      cmp byte [cs:0x1786],0x1
000011AF  7434              jz 0x11e5
000011B1  BB00C8            mov bx,0xc800
000011B4  8EDB              mov ds,bx
000011B6  BE0000            mov si,0x0
000011B9  B9D007            mov cx,0x7d0
000011BC  FC                cld
000011BD  F3A7              repe cmpsw
000011BF  7524              jnz 0x11e5
000011C1  BB4000            mov bx,0x40
000011C4  8EDB              mov ds,bx
000011C6  8A3E9E00          mov bh,[0x9e]
000011CA  8A1E9D00          mov bl,[0x9d]
000011CE  2E3A3E8B17        cmp bh,[cs:0x178b]
000011D3  7403              jz 0x11d8
000011D5  E97401            jmp 0x134c
000011D8  2E3A1E8A17        cmp bl,[cs:0x178a]
000011DD  7403              jz 0x11e2
000011DF  E96A01            jmp 0x134c
000011E2  E9B501            jmp 0x139a
000011E5  BB4000            mov bx,0x40
000011E8  8EC3              mov es,bx
000011EA  0E                push cs
000011EB  1F                pop ds
000011EC  C6068817FF        mov byte [0x1788],0xff
000011F1  C6068917FF        mov byte [0x1789],0xff
000011F6  26803EA10000      cmp byte [es:0xa1],0x0
000011FC  7403              jz 0x1201
000011FE  E8BF01            call 0x13c0
00001201  C6068717FF        mov byte [0x1787],0xff
00001206  BB4000            mov bx,0x40
00001209  8EC3              mov es,bx
0000120B  268B3EAD00        mov di,[es:0xad]
00001210  D1E7              shl di,1
00001212  83EF02            sub di,byte +0x2
00001215  BB00B8            mov bx,0xb800
00001218  8EC3              mov es,bx
0000121A  BDFFFF            mov bp,0xffff
0000121D  BE4F00            mov si,0x4f
00001220  83C702            add di,byte +0x2
00001223  46                inc si
00001224  83FE50            cmp si,byte +0x50
00001227  7571              jnz 0x129a
00001229  BE0000            mov si,0x0
0000122C  45                inc bp
0000122D  83FD19            cmp bp,byte +0x19
00001230  7503              jnz 0x1235
00001232  E90701            jmp 0x133c
00001235  2E803E861701      cmp byte [cs:0x1786],0x1
0000123B  745D              jz 0x129a
0000123D  56                push si
0000123E  57                push di
0000123F  BB00B8            mov bx,0xb800
00001242  8EDB              mov ds,bx
00001244  BB00C8            mov bx,0xc800
00001247  8EC3              mov es,bx
00001249  89FE              mov si,di
0000124B  06                push es
0000124C  BB4000            mov bx,0x40
0000124F  8EC3              mov es,bx
00001251  262B3EAD00        sub di,[es:0xad]
00001256  262B3EAD00        sub di,[es:0xad]
0000125B  07                pop es
0000125C  B95000            mov cx,0x50
0000125F  FC                cld
00001260  F3A7              repe cmpsw
00001262  5F                pop di
00001263  5E                pop si
00001264  742E              jz 0x1294
00001266  51                push cx
00001267  56                push si
00001268  57                push di
00001269  06                push es
0000126A  BB4000            mov bx,0x40
0000126D  8EC3              mov es,bx
0000126F  89FE              mov si,di
00001271  262B3EAD00        sub di,[es:0xad]
00001276  262B3EAD00        sub di,[es:0xad]
0000127B  07                pop es
0000127C  B95000            mov cx,0x50
0000127F  FC                cld
00001280  F3A5              rep movsw
00001282  5F                pop di
00001283  5E                pop si
00001284  59                pop cx
00001285  BB4F00            mov bx,0x4f
00001288  29CB              sub bx,cx
0000128A  01DF              add di,bx
0000128C  01DF              add di,bx
0000128E  01DE              add si,bx
00001290  1E                push ds
00001291  07                pop es
00001292  EB06              jmp short 0x129a
00001294  81C7A000          add di,0xa0
00001298  EB8F              jmp short 0x1229
0000129A  0E                push cs
0000129B  1F                pop ds
0000129C  26803D00          cmp byte [es:di],0x0
000012A0  7503              jnz 0x12a5
000012A2  E97BFF            jmp 0x1220
000012A5  89E8              mov ax,bp
000012A7  89F3              mov bx,si
000012A9  88C6              mov dh,al
000012AB  88DA              mov dl,bl
000012AD  3A368917          cmp dh,[0x1789]
000012B1  750A              jnz 0x12bd
000012B3  52                push dx
000012B4  FECA              dec dl
000012B6  3A168817          cmp dl,[0x1788]
000012BA  5A                pop dx
000012BB  7422              jz 0x12df
000012BD  B01B              mov al,0x1b
000012BF  0F00B05B0F        jmpe word [bx+si+0xf5b]
000012C4  0088F0FE          add [bx+si-0x110],cl
000012C8  C0E8D9            shr al,byte 0xd9
000012CB  FC                cld
000012CC  B03B              mov al,0x3b
000012CE  0F0088D0FE        str [bx+si-0x130]
000012D3  C0E8CE            shr al,byte 0xce
000012D6  FC                cld
000012D7  B048              mov al,0x48
000012D9  0F00883689        str [bx+si-0x76ca]
000012DE  17                pop ss
000012DF  88168817          mov [0x1788],dl
000012E3  268A5501          mov dl,[es:di+0x1]
000012E7  3A168717          cmp dl,[0x1787]
000012EB  743E              jz 0x132b
000012ED  88168717          mov [0x1787],dl
000012F1  B01B              mov al,0x1b
000012F3  0F00B05B0F        jmpe word [bx+si+0xf5b]
000012F8  0088D024          add [bx+si+0x24d0],cl
000012FC  08C0              or al,al
000012FE  E803E8            call 0xfb04
00001301  A2FCB0            mov [0xb0fc],al
00001304  3B0F              cmp cx,[bx]
00001306  005280            add [bp+si-0x80],dl
00001309  E207              loop 0x1312
0000130B  BB5417            mov bx,0x1754
0000130E  88D0              mov al,dl
00001310  D7                xlatb
00001311  E891FC            call 0xfa5
00001314  B03B              mov al,0x3b
00001316  0F005AC0          ltr [bp+si-0x40]
0000131A  EA0480E207        jmp 0x7e2:0x8004
0000131F  88D0              mov al,dl
00001321  D7                xlatb
00001322  040A              add al,0xa
00001324  E87EFC            call 0xfa5
00001327  B06D              mov al,0x6d
00001329  0F00268A05        verr [0x58a]
0000132E  3C20              cmp al,0x20
00001330  7305              jnc 0x1337
00001332  BB5C17            mov bx,0x175c
00001335  2ED7              cs xlatb
00001337  0F00E9            verw cx
0000133A  E4FE              in al,0xfe
0000133C  B01B              mov al,0x1b
0000133E  0F00B05B0F        jmpe word [bx+si+0xf5b]
00001343  00B0300F          add [bx+si+0xf30],dh
00001347  00B06D0F          add [bx+si+0xf6d],dh
0000134B  00BB4000          add [bp+di+0x40],bh
0000134F  8EDB              mov ds,bx
00001351  8A3E9E00          mov bh,[0x9e]
00001355  8A1E9D00          mov bl,[0x9d]
00001359  2E883E8B17        mov [cs:0x178b],bh
0000135E  2E881E8A17        mov [cs:0x178a],bl
00001363  80FF18            cmp bh,0x18
00001366  772F              ja 0x1397
00001368  80FB4F            cmp bl,0x4f
0000136B  772A              ja 0x1397
0000136D  B01B              mov al,0x1b
0000136F  0F00B05B0F        jmpe word [bx+si+0xf5b]
00001374  0088F8FE          add [bx+si-0x108],cl
00001378  C0E829            shr al,byte 0x29
0000137B  FC                cld
0000137C  B03B              mov al,0x3b
0000137E  0F0088D8FE        str [bx+si-0x128]
00001383  C0E81E            shr al,byte 0x1e
00001386  FC                cld
00001387  B048              mov al,0x48
00001389  0F00803EA1        sldt [bx+si-0x5ec2]
0000138E  0001              add [bx+di],al
00001390  7505              jnz 0x1397
00001392  E81200            call 0x13a7
00001395  EB03              jmp short 0x139a
00001397  E82600            call 0x13c0
0000139A  2EC606861700      mov byte [cs:0x1786],0x0
000013A0  2EC606851700      mov byte [cs:0x1785],0x0
000013A6  C3                ret
000013A7  B01B              mov al,0x1b
000013A9  0F00B05B0F        jmpe word [bx+si+0xf5b]
000013AE  00B03F0F          add [bx+si+0xf3f],dh
000013B2  00B0320F          add [bx+si+0xf32],dh
000013B6  00B0350F          add [bx+si+0xf35],dh
000013BA  00B0680F          add [bx+si+0xf68],dh
000013BE  00C3              add bl,al
000013C0  B01B              mov al,0x1b
000013C2  0F00B05B0F        jmpe word [bx+si+0xf5b]
000013C7  00B03F0F          add [bx+si+0xf3f],dh
000013CB  00B0320F          add [bx+si+0xf32],dh
000013CF  00B0350F          add [bx+si+0xf35],dh
000013D3  00B06C0F          add [bx+si+0xf6c],dh
000013D7  00C3              add bl,al
000013D9  0000              add [bx+si],al
000013DB  0000              add [bx+si],al
000013DD  0000              add [bx+si],al
000013DF  0000              add [bx+si],al
000013E1  0000              add [bx+si],al
000013E3  0000              add [bx+si],al
000013E5  0000              add [bx+si],al
000013E7  0000              add [bx+si],al
000013E9  2100              and [bx+si],ax
000013EB  00800200          add [bx+si+0x2],al
000013EF  0000              add [bx+si],al
000013F1  0000              add [bx+si],al
000013F3  1E                push ds
000013F4  001E0058          add [0x5800],bl
000013F8  58                pop ax
000013F9  58                pop ax
000013FA  58                pop ax
000013FB  58                pop ax
000013FC  58                pop ax
000013FD  58                pop ax
000013FE  58                pop ax
000013FF  58                pop ax
00001400  58                pop ax
00001401  58                pop ax
00001402  58                pop ax
00001403  58                pop ax
00001404  58                pop ax
00001405  58                pop ax
00001406  58                pop ax
00001407  58                pop ax
00001408  58                pop ax
00001409  58                pop ax
0000140A  58                pop ax
0000140B  58                pop ax
0000140C  58                pop ax
0000140D  58                pop ax
0000140E  58                pop ax
0000140F  58                pop ax
00001410  58                pop ax
00001411  58                pop ax
00001412  58                pop ax
00001413  58                pop ax
00001414  58                pop ax
00001415  58                pop ax
00001416  58                pop ax
00001417  0000              add [bx+si],al
00001419  07                pop es
0000141A  0000              add [bx+si],al
0000141C  0000              add [bx+si],al
0000141E  0000              add [bx+si],al
00001420  0000              add [bx+si],al
00001422  035000            add dx,[bx+si+0x0]
00001425  0010              add [bx+si],dl
00001427  0000              add [bx+si],al
00001429  0000              add [bx+si],al
0000142B  0000              add [bx+si],al
0000142D  0000              add [bx+si],al
0000142F  0000              add [bx+si],al
00001431  0000              add [bx+si],al
00001433  0000              add [bx+si],al
00001435  0000              add [bx+si],al
00001437  0000              add [bx+si],al
00001439  07                pop es
0000143A  06                push es
0000143B  00D4              add ah,dl
0000143D  030A              add cx,[bp+si]
0000143F  0000              add [bx+si],al
00001441  0000              add [bx+si],al
00001443  0000              add [bx+si],al
00001445  0000              add [bx+si],al
00001447  0000              add [bx+si],al
00001449  0000              add [bx+si],al
0000144B  3412              xor al,0x12
0000144D  0000              add [bx+si],al
0000144F  0000              add [bx+si],al
00001451  0000              add [bx+si],al
00001453  0000              add [bx+si],al
00001455  0000              add [bx+si],al
00001457  0000              add [bx+si],al
00001459  1E                push ds
0000145A  003E0019          add [0x1900],bh
0000145E  0000              add [bx+si],al
00001460  0000              add [bx+si],al
00001462  0000              add [bx+si],al
00001464  0000              add [bx+si],al
00001466  0000              add [bx+si],al
00001468  0000              add [bx+si],al
0000146A  0000              add [bx+si],al
0000146C  0000              add [bx+si],al
0000146E  0000              add [bx+si],al
00001470  0000              add [bx+si],al
00001472  0000              add [bx+si],al
00001474  0000              add [bx+si],al
00001476  0000              add [bx+si],al
00001478  0000              add [bx+si],al
0000147A  0100              add [bx+si],ax
0000147C  0000              add [bx+si],al
0000147E  0000              add [bx+si],al
00001480  00FF              add bh,bh
00001482  FF00              inc word [bx+si]
00001484  0000              add [bx+si],al
00001486  0000              add [bx+si],al
00001488  0000              add [bx+si],al
0000148A  0000              add [bx+si],al
0000148C  0000              add [bx+si],al
0000148E  0000              add [bx+si],al
00001490  0000              add [bx+si],al
00001492  0000              add [bx+si],al
00001494  0000              add [bx+si],al
00001496  0000              add [bx+si],al
00001498  0000              add [bx+si],al
0000149A  0000              add [bx+si],al
0000149C  0000              add [bx+si],al
0000149E  0000              add [bx+si],al
000014A0  0000              add [bx+si],al
000014A2  0000              add [bx+si],al
000014A4  0000              add [bx+si],al
000014A6  0000              add [bx+si],al
000014A8  0000              add [bx+si],al
000014AA  0000              add [bx+si],al
000014AC  0000              add [bx+si],al
000014AE  0000              add [bx+si],al
000014B0  0000              add [bx+si],al
000014B2  0000              add [bx+si],al
000014B4  0000              add [bx+si],al
000014B6  0000              add [bx+si],al
000014B8  0000              add [bx+si],al
000014BA  0000              add [bx+si],al
000014BC  0000              add [bx+si],al
000014BE  0000              add [bx+si],al
000014C0  0000              add [bx+si],al
000014C2  0000              add [bx+si],al
000014C4  0000              add [bx+si],al
000014C6  0000              add [bx+si],al
000014C8  0000              add [bx+si],al
000014CA  0000              add [bx+si],al
000014CC  0000              add [bx+si],al
000014CE  0000              add [bx+si],al
000014D0  0000              add [bx+si],al
000014D2  0000              add [bx+si],al
000014D4  0000              add [bx+si],al
000014D6  0000              add [bx+si],al
000014D8  FF1E302E          call far [0x2e30]
000014DC  2012              and [bp+si],dl
000014DE  2122              and [bp+si],sp
000014E0  0E                push cs
000014E1  0F                db 0x0f
000014E2  2425              and al,0x25
000014E4  261C31            es sbb al,0x31
000014E7  1819              sbb [bx+di],bl
000014E9  1013              adc [bp+di],dl
000014EB  1F                pop ds
000014EC  1416              adc al,0x16
000014EE  2F                das
000014EF  112D              adc [di],bp
000014F1  152C01            adc ax,0x12c
000014F4  0000              add [bx+si],al
000014F6  0000              add [bx+si],al
000014F8  3902              cmp [bp+si],ax
000014FA  2804              sub [si],al
000014FC  050608            add ax,0x806
000014FF  280A              sub [bp+si],cl
00001501  0B09              or cx,[bx+di]
00001503  0D330C            or ax,0xc33
00001506  3435              xor al,0x35
00001508  0B02              or ax,[bp+si]
0000150A  0304              add ax,[si]
0000150C  050607            add ax,0x706
0000150F  0809              or [bx+di],cl
00001511  0A27              or ah,[bx]
00001513  27                daa
00001514  330D              xor cx,[di]
00001516  3435              xor al,0x35
00001518  031E302E          add bx,[0x2e30]
0000151C  2012              and [bp+si],dl
0000151E  2122              and [bp+si],sp
00001520  2317              and dx,[bx]
00001522  2425              and al,0x25
00001524  263231            xor dh,[es:bx+di]
00001527  1819              sbb [bx+di],bl
00001529  1013              adc [bp+di],dl
0000152B  1F                pop ds
0000152C  1416              adc al,0x16
0000152E  2F                das
0000152F  112D              adc [di],bp
00001531  152C1A            adc ax,0x1a2c
00001534  2B1B              sub bx,[bp+di]
00001536  07                pop es
00001537  0C29              or al,0x29
00001539  1E                push ds
0000153A  302E2012          xor [0x1220],ch
0000153E  2122              and [bp+si],sp
00001540  2317              and dx,[bx]
00001542  2425              and al,0x25
00001544  263231            xor dh,[es:bx+di]
00001547  1819              sbb [bx+di],bl
00001549  1013              adc [bp+di],dl
0000154B  1F                pop ds
0000154C  1416              adc al,0x16
0000154E  2F                das
0000154F  112D              adc [di],bp
00001551  152C1A            adc ax,0x1a2c
00001554  2B1B              sub bx,[bp+di]
00001556  290E0000          sub [0x0],cx
0000155A  0000              add [bx+si],al
0000155C  0000              add [bx+si],al
0000155E  0000              add [bx+si],al
00001560  0000              add [bx+si],al
00001562  0000              add [bx+si],al
00001564  0000              add [bx+si],al
00001566  0000              add [bx+si],al
00001568  0000              add [bx+si],al
0000156A  0000              add [bx+si],al
0000156C  0000              add [bx+si],al
0000156E  0000              add [bx+si],al
00001570  0000              add [bx+si],al
00001572  0000              add [bx+si],al
00001574  0000              add [bx+si],al
00001576  0000              add [bx+si],al
00001578  0001              add [bx+di],al
0000157A  0101              add [bx+di],ax
0000157C  0101              add [bx+di],ax
0000157E  0100              add [bx+si],ax
00001580  0101              add [bx+di],ax
00001582  0101              add [bx+di],ax
00001584  0000              add [bx+si],al
00001586  0000              add [bx+si],al
00001588  0000              add [bx+si],al
0000158A  0000              add [bx+si],al
0000158C  0000              add [bx+si],al
0000158E  0000              add [bx+si],al
00001590  0000              add [bx+si],al
00001592  0100              add [bx+si],ax
00001594  0100              add [bx+si],ax
00001596  0101              add [bx+di],ax
00001598  0101              add [bx+di],ax
0000159A  0101              add [bx+di],ax
0000159C  0101              add [bx+di],ax
0000159E  0101              add [bx+di],ax
000015A0  0101              add [bx+di],ax
000015A2  0101              add [bx+di],ax
000015A4  0101              add [bx+di],ax
000015A6  0101              add [bx+di],ax
000015A8  0101              add [bx+di],ax
000015AA  0101              add [bx+di],ax
000015AC  0101              add [bx+di],ax
000015AE  0101              add [bx+di],ax
000015B0  0101              add [bx+di],ax
000015B2  0100              add [bx+si],ax
000015B4  0000              add [bx+si],al
000015B6  0101              add [bx+di],ax
000015B8  0000              add [bx+si],al
000015BA  0000              add [bx+si],al
000015BC  0000              add [bx+si],al
000015BE  0000              add [bx+si],al
000015C0  0000              add [bx+si],al
000015C2  0000              add [bx+si],al
000015C4  0000              add [bx+si],al
000015C6  0000              add [bx+si],al
000015C8  0000              add [bx+si],al
000015CA  0000              add [bx+si],al
000015CC  0000              add [bx+si],al
000015CE  0000              add [bx+si],al
000015D0  0000              add [bx+si],al
000015D2  0001              add [bx+di],al
000015D4  0101              add [bx+di],ax
000015D6  0100              add [bx+si],ax
000015D8  7510              jnz 0x15ea
000015DA  00F0              add al,dh
000015DC  7510              jnz 0x15ee
000015DE  00F0              add al,dh
000015E0  7510              jnz 0x15f2
000015E2  00F0              add al,dh
000015E4  7510              jnz 0x15f6
000015E6  00F0              add al,dh
000015E8  7510              jnz 0x15fa
000015EA  00F0              add al,dh
000015EC  7510              jnz 0x15fe
000015EE  00F0              add al,dh
000015F0  7510              jnz 0x1602
000015F2  00F0              add al,dh
000015F4  3103              xor [bp+di],ax
000015F6  00F0              add al,dh
000015F8  3E07              ds pop es
000015FA  00F0              add al,dh
000015FC  3C06              cmp al,0x6
000015FE  00F0              add al,dh
00001600  7C06              jl 0x1608
00001602  00F0              add al,dh
00001604  7510              jnz 0x1616
00001606  00F0              add al,dh
00001608  7510              jnz 0x161a
0000160A  00F0              add al,dh
0000160C  7510              jnz 0x161e
0000160E  00F0              add al,dh
00001610  7510              jnz 0x1622
00001612  00F0              add al,dh
00001614  7510              jnz 0x1626
00001616  00F0              add al,dh
00001618  41                inc cx
00001619  07                pop es
0000161A  00F0              add al,dh
0000161C  A5                movsw
0000161D  0C00              or al,0x0
0000161F  F0AA              lock stosb
00001621  0C00              or al,0x0
00001623  F0AE              lock scasb
00001625  0C00              or al,0x0
00001627  F098              lock cbw
00001629  0E                push cs
0000162A  00F0              add al,dh
0000162C  A6                cmpsb
0000162D  0E                push cs
0000162E  00F0              add al,dh
00001630  AB                stosw
00001631  0E                push cs
00001632  00F0              add al,dh
00001634  300F              xor [bx],cl
00001636  00F0              add al,dh
00001638  7510              jnz 0x164a
0000163A  00F0              add al,dh
0000163C  3D0F00            cmp ax,0xf
0000163F  F040              lock inc ax
00001641  0F00F0            jmpe ax
00001644  7510              jnz 0x1656
00001646  00F0              add al,dh
00001648  3310              xor dx,[bx+si]
0000164A  00F0              add al,dh
0000164C  7510              jnz 0x165e
0000164E  00F0              add al,dh
00001650  3410              xor al,0x10
00001652  7A00              jpe 0x1654
00001654  1E                push ds
00001655  2220              and ah,[bx+si]
00001657  241F              and al,0x1f
00001659  2321              and sp,[bx+di]
0000165B  2520FA            and ax,0xfa20
0000165E  FA                cli
0000165F  FA                cli
00001660  FA                cli
00001661  FA                cli
00001662  FA                cli
00001663  FA                cli
00001664  FA                cli
00001665  FA                cli
00001666  FA                cli
00001667  FA                cli
00001668  FA                cli
00001669  FA                cli
0000166A  FA                cli
0000166B  FA                cli
0000166C  3E3C7C            ds cmp al,0x7c
0000166F  217C24            and [si+0x24],di
00001672  FA                cli
00001673  7C5E              jl 0x16d3
00001675  763E              jna 0x16b5
00001677  3C2D              cmp al,0x2d
00001679  2D5E76            sub ax,0x765e
0000167C  48                dec ax
0000167D  50                push ax
0000167E  4D                dec bp
0000167F  4B                dec bx
00001680  47                inc di
00001681  4F                dec di
00001682  49                dec cx
00001683  51                push cx
00001684  0000              add [bx+si],al
00001686  0000              add [bx+si],al
00001688  0000              add [bx+si],al
0000168A  0000              add [bx+si],al
0000168C  0000              add [bx+si],al
0000168E  0003              add [bp+di],al
00001690  0305              add ax,[di]
00001692  050607            add ax,0x706
00001695  0C03              or al,0x3
00001697  06                push es
00001698  07                pop es
00001699  06                push es
0000169A  07                pop es
0000169B  0C0C              or al,0xc
0000169D  0C0C              or al,0xc
0000169F  0000              add [bx+si],al
000016A1  0000              add [bx+si],al
000016A3  0000              add [bx+si],al
000016A5  0100              add [bx+si],ax
000016A7  0B0B              or cx,[bp+di]
000016A9  0A0A              or cl,[bp+si]
000016AB  0B0B              or cx,[bp+di]
000016AD  0B0B              or cx,[bp+di]
000016AF  0303              add ax,[bp+di]
000016B1  050506            add ax,0x605
000016B4  07                pop es
000016B5  050301            add ax,0x103
000016B8  0101              add [bx+di],ax
000016BA  0101              add [bx+di],ax
000016BC  0101              add [bx+di],ax
000016BE  010B              add [bp+di],cx
000016C0  0B0A              or cx,[bp+si]
000016C2  0A0B              or cl,[bp+di]
000016C4  0B0A              or cx,[bp+si]
000016C6  0B09              or cx,[bx+di]
000016C8  0909              or [bx+di],cx
000016CA  0907              or [bx],ax
000016CC  07                pop es
000016CD  191A              sbb [bp+si],bx
000016CF  0909              or [bx+di],cx
000016D1  0909              or [bx+di],cx
000016D3  07                pop es
000016D4  07                pop es
000016D5  1930              sbb [bx+si],si
000016D7  0909              or [bx+di],cx
000016D9  0909              or [bx+di],cx
000016DB  07                pop es
000016DC  07                pop es
000016DD  191A              sbb [bp+si],bx
000016DF  0909              or [bx+di],cx
000016E1  0909              or [bx+di],cx
000016E3  07                pop es
000016E4  07                pop es
000016E5  191A              sbb [bp+si],bx
000016E7  0909              or [bx+di],cx
000016E9  0909              or [bx+di],cx
000016EB  07                pop es
000016EC  07                pop es
000016ED  1B1C              sbb bx,[si]
000016EF  0909              or [bx+di],cx
000016F1  0909              or [bx+di],cx
000016F3  07                pop es
000016F4  07                pop es
000016F5  1B1C              sbb bx,[si]
000016F7  0909              or [bx+di],cx
000016F9  0909              or [bx+di],cx
000016FB  07                pop es
000016FC  07                pop es
000016FD  1B1D              sbb bx,[di]
000016FF  0909              or [bx+di],cx
00001701  0909              or [bx+di],cx
00001703  07                pop es
00001704  07                pop es
00001705  1B1D              sbb bx,[di]
00001707  0202              add al,[bp+si]
00001709  0202              add al,[bp+si]
0000170B  0202              add al,[bp+si]
0000170D  0202              add al,[bp+si]
0000170F  0202              add al,[bp+si]
00001711  0202              add al,[bp+si]
00001713  0202              add al,[bp+si]
00001715  0202              add al,[bp+si]
00001717  0303              add ax,[bp+di]
00001719  0303              add ax,[bp+di]
0000171B  0303              add ax,[bp+di]
0000171D  0303              add ax,[bp+di]
0000171F  0404              add al,0x4
00001721  0404              add al,0x4
00001723  0404              add al,0x4
00001725  0404              add al,0x4
00001727  33363434          xor si,[0x3434]
0000172B  3434              xor al,0x34
0000172D  3434              xor al,0x34
0000172F  37                aaa
00001730  37                aaa
00001731  37                aaa
00001732  37                aaa
00001733  3434              xor al,0x34
00001735  3434              xor al,0x34
00001737  0000              add [bx+si],al
00001739  0000              add [bx+si],al
0000173B  0000              add [bx+si],al
0000173D  0000              add [bx+si],al
0000173F  0000              add [bx+si],al
00001741  0000              add [bx+si],al
00001743  0000              add [bx+si],al
00001745  0000              add [bx+si],al
00001747  0808              or [bx+si],cl
00001749  0808              or [bx+si],cl
0000174B  0F                db 0x0f
0000174C  0F1818            prefetcht2 byte [bx+si]
0000174F  0909              or [bx+di],cx
00001751  0909              or [bx+di],cx
00001753  0A0A              or cl,[bp+si]
00001755  0A0A              or cl,[bp+si]
00001757  1010              adc [bx+si],dl
00001759  1010              adc [bx+si],dl
0000175B  1010              adc [bx+si],dl
0000175D  1010              adc [bx+si],dl
0000175F  1E                push ds
00001760  1F                pop ds
00001761  20362122          and [0x2221],dh
00001765  2324              and sp,[si]
00001767  0B0B              or cx,[bp+di]
00001769  0B0B              or cx,[bp+di]
0000176B  1111              adc [bx+di],dx
0000176D  1212              adc dl,[bp+si]
0000176F  2F                das
00001770  2F                das
00001771  1111              adc [bx+di],dx
00001773  1111              adc [bx+di],dx
00001775  1212              adc dl,[bp+si]
00001777  0101              add [bx+di],ax
00001779  0101              add [bx+di],ax
0000177B  0101              add [bx+di],ax
0000177D  0101              add [bx+di],ax
0000177F  0101              add [bx+di],ax
00001781  0101              add [bx+di],ax
00001783  0101              add [bx+di],ax
00001785  0101              add [bx+di],ax
00001787  0C0C              or al,0xc
00001789  1313              adc dx,[bp+di]
0000178B  252514            and ax,0x1425
0000178E  1431              adc al,0x31
00001790  3213              xor dl,[bp+di]
00001792  13262728          adc sp,[0x2827]
00001796  130C              adc cx,[si]
00001798  0C0C              or al,0xc
0000179A  0C29              or al,0x29
0000179C  2A2B              sub ch,[bp+di]
0000179E  2C35              sub al,0x35
000017A0  353535            xor ax,0x3535
000017A3  353535            xor ax,0x3535
000017A6  350D0D            xor ax,0xd0d
000017A9  0D0D15            or ax,0x150d
000017AC  151616            adc ax,0x1616
000017AF  0E                push cs
000017B0  0E                push cs
000017B1  0E                push cs
000017B2  0E                push cs
000017B3  151516            adc ax,0x1615
000017B6  16                push ss
000017B7  350017            xor ax,0x1700
000017BA  17                pop ss
000017BB  352D06            xor ax,0x62d
000017BE  06                push es
000017BF  2E2E2E2E2E2E0505  cs add ax,0x5
         -00
000017C8  0000              add [bx+si],al
000017CA  0000              add [bx+si],al
000017CC  0008              add [bx+si],cl
000017CE  0801              or [bx+di],al
000017D0  0101              add [bx+di],ax
000017D2  0101              add [bx+di],ax
000017D4  0109              add [bx+di],cx
000017D6  2402              and al,0x2
000017D8  0202              add al,[bp+si]
000017DA  0202              add al,[bp+si]
000017DC  020A              add cl,[bp+si]
000017DE  0A03              or al,[bp+di]
000017E0  0303              add ax,[bp+di]
000017E2  0303              add ax,[bp+di]
000017E4  030B              add cx,[bp+di]
000017E6  0B04              or ax,[si]
000017E8  0404              add al,0x4
000017EA  0404              add al,0x4
000017EC  0408              add al,0x8
000017EE  0005              add [di],al
000017F0  050505            add ax,0x505
000017F3  050509            add ax,0x905
000017F6  01060606          add [0x606],ax
000017FA  06                push es
000017FB  06                push es
000017FC  06                push es
000017FD  0A02              or al,[bp+si]
000017FF  07                pop es
00001800  07                pop es
00001801  07                pop es
00001802  07                pop es
00001803  07                pop es
00001804  07                pop es
00001805  0B00              or ax,[bx+si]
00001807  0000              add [bx+si],al
00001809  0000              add [bx+si],al
0000180B  0000              add [bx+si],al
0000180D  0000              add [bx+si],al
0000180F  0101              add [bx+di],ax
00001811  0101              add [bx+di],ax
00001813  0101              add [bx+di],ax
00001815  0101              add [bx+di],ax
00001817  0000              add [bx+si],al
00001819  0000              add [bx+si],al
0000181B  0000              add [bx+si],al
0000181D  0000              add [bx+si],al
0000181F  0000              add [bx+si],al
00001821  0000              add [bx+si],al
00001823  0000              add [bx+si],al
00001825  0000              add [bx+si],al
00001827  0000              add [bx+si],al
00001829  151515            adc ax,0x1515
0000182C  151515            adc ax,0x1515
0000182F  0000              add [bx+si],al
00001831  0000              add [bx+si],al
00001833  151515            adc ax,0x1515
00001836  151515            adc ax,0x1515
00001839  151515            adc ax,0x1515
0000183C  151515            adc ax,0x1515
0000183F  151515            adc ax,0x1515
00001842  151515            adc ax,0x1515
00001845  151500            adc ax,0x15
00001848  0000              add [bx+si],al
0000184A  0000              add [bx+si],al
0000184C  0000              add [bx+si],al
0000184E  0008              add [bx+si],cl
00001850  0808              or [bx+si],cl
00001852  080C              or [si],cl
00001854  0C0C              or al,0xc
00001856  0C00              or al,0x0
00001858  0000              add [bx+si],al
0000185A  0000              add [bx+si],al
0000185C  0000              add [bx+si],al
0000185E  0000              add [bx+si],al
00001860  0000              add [bx+si],al
00001862  0000              add [bx+si],al
00001864  00FF              add bh,bh
00001866  0000              add [bx+si],al
00001868  0000              add [bx+si],al
0000186A  0000              add [bx+si],al
0000186C  0000              add [bx+si],al
0000186E  0000              add [bx+si],al
00001870  0001              add [bx+di],al
00001872  0102              add [bp+si],ax
00001874  0201              add al,[bx+di]
00001876  0100              add [bx+si],ax
00001878  0000              add [bx+si],al
0000187A  0000              add [bx+si],al
0000187C  0000              add [bx+si],al
0000187E  0000              add [bx+si],al
00001880  0000              add [bx+si],al
00001882  0000              add [bx+si],al
00001884  0000              add [bx+si],al
00001886  0001              add [bx+di],al
00001888  0100              add [bx+si],ax
0000188A  0010              add [bx+si],dl
0000188C  16                push ss
0000188D  0000              add [bx+si],al
0000188F  0000              add [bx+si],al
00001891  0101              add [bx+di],ax
00001893  00FF              add bh,bh
00001895  3002              xor [bp+si],al
00001897  0000              add [bx+si],al
00001899  0000              add [bx+si],al
0000189B  FF                db 0xff
0000189C  FF28              jmp far [bx+si]
0000189E  0B03              or ax,[bp+di]
000018A0  0303              add ax,[bp+di]
000018A2  0303              add ax,[bp+di]
000018A4  0303              add ax,[bp+di]
000018A6  032B              add bp,[bp+di]
000018A8  2B2B              sub bp,[bp+di]
000018AA  2B00              sub ax,[bx+si]
000018AC  0000              add [bx+si],al
000018AE  0000              add [bx+si],al
000018B0  0000              add [bx+si],al
000018B2  0001              add [bx+di],al
000018B4  0101              add [bx+di],ax
000018B6  0101              add [bx+di],ax
000018B8  150000            adc ax,0x0
000018BB  0228              add ch,[bx+si]
000018BD  151550            adc ax,0x5015
000018C0  51                push cx
000018C1  5C                pop sp
000018C2  5D                pop bp
000018C3  5E                pop si
000018C4  5F                pop di
000018C5  0000              add [bx+si],al
000018C7  0303              add ax,[bp+di]
000018C9  0303              add ax,[bp+di]
000018CB  0303              add ax,[bp+di]
000018CD  0000              add [bx+si],al
000018CF  050505            add ax,0x505
000018D2  050505            add ax,0x505
000018D5  0000              add [bx+si],al
000018D7  0101              add [bx+di],ax
000018D9  0101              add [bx+di],ax
000018DB  0101              add [bx+di],ax
000018DD  0000              add [bx+si],al
000018DF  0101              add [bx+di],ax
000018E1  0101              add [bx+di],ax
000018E3  0101              add [bx+di],ax
000018E5  0000              add [bx+si],al
000018E7  050505            add ax,0x505
000018EA  050505            add ax,0x505
000018ED  0001              add [bx+di],al
000018EF  0303              add ax,[bp+di]
000018F1  0303              add ax,[bp+di]
000018F3  0303              add ax,[bp+di]
000018F5  0001              add [bx+di],al
000018F7  050505            add ax,0x505
000018FA  050505            add ax,0x505
000018FD  0001              add [bx+di],al
000018FF  0303              add ax,[bp+di]
00001901  0303              add ax,[bp+di]
00001903  0303              add ax,[bp+di]
00001905  0001              add [bx+di],al
00001907  0101              add [bx+di],ax
00001909  0101              add [bx+di],ax
0000190B  0101              add [bx+di],ax
0000190D  0101              add [bx+di],ax
0000190F  0101              add [bx+di],ax
00001911  0101              add [bx+di],ax
00001913  0101              add [bx+di],ax
00001915  0101              add [bx+di],ax
00001917  0000              add [bx+si],al
00001919  0000              add [bx+si],al
0000191B  0000              add [bx+si],al
0000191D  0000              add [bx+si],al
0000191F  0000              add [bx+si],al
00001921  0000              add [bx+si],al
00001923  0000              add [bx+si],al
00001925  0000              add [bx+si],al
00001927  0000              add [bx+si],al
00001929  0000              add [bx+si],al
0000192B  0000              add [bx+si],al
0000192D  0000              add [bx+si],al
0000192F  0000              add [bx+si],al
00001931  0000              add [bx+si],al
00001933  0000              add [bx+si],al
00001935  0000              add [bx+si],al
00001937  0000              add [bx+si],al
00001939  0000              add [bx+si],al
0000193B  0000              add [bx+si],al
0000193D  0000              add [bx+si],al
0000193F  0000              add [bx+si],al
00001941  0000              add [bx+si],al
00001943  0000              add [bx+si],al
00001945  0000              add [bx+si],al
00001947  0101              add [bx+di],ax
00001949  0101              add [bx+di],ax
0000194B  050500            add ax,0x5
0000194E  0000              add [bx+si],al
00001950  0000              add [bx+si],al
00001952  0000              add [bx+si],al
00001954  0000              add [bx+si],al
00001956  0000              add [bx+si],al
00001958  0000              add [bx+si],al
0000195A  0000              add [bx+si],al
0000195C  0000              add [bx+si],al
0000195E  0000              add [bx+si],al
00001960  0000              add [bx+si],al
00001962  0000              add [bx+si],al
00001964  0000              add [bx+si],al
00001966  0000              add [bx+si],al
00001968  0000              add [bx+si],al
0000196A  0000              add [bx+si],al
0000196C  0000              add [bx+si],al
0000196E  0005              add [di],al
00001970  050000            add ax,0x0
00001973  0000              add [bx+si],al
00001975  0000              add [bx+si],al
00001977  0000              add [bx+si],al
00001979  0000              add [bx+si],al
0000197B  0000              add [bx+si],al
0000197D  0000              add [bx+si],al
0000197F  0000              add [bx+si],al
00001981  0000              add [bx+si],al
00001983  0000              add [bx+si],al
00001985  0000              add [bx+si],al
00001987  0000              add [bx+si],al
00001989  0000              add [bx+si],al
0000198B  0000              add [bx+si],al
0000198D  0000              add [bx+si],al
0000198F  0000              add [bx+si],al
00001991  0000              add [bx+si],al
00001993  0000              add [bx+si],al
00001995  0000              add [bx+si],al
00001997  0000              add [bx+si],al
00001999  0000              add [bx+si],al
0000199B  050500            add ax,0x5
0000199E  0000              add [bx+si],al
000019A0  0000              add [bx+si],al
000019A2  0000              add [bx+si],al
000019A4  0000              add [bx+si],al
000019A6  0000              add [bx+si],al
000019A8  0000              add [bx+si],al
000019AA  0000              add [bx+si],al
000019AC  0000              add [bx+si],al
000019AE  0000              add [bx+si],al
000019B0  0000              add [bx+si],al
000019B2  0000              add [bx+si],al
000019B4  0000              add [bx+si],al
000019B6  0000              add [bx+si],al
000019B8  0000              add [bx+si],al
000019BA  0000              add [bx+si],al
000019BC  0000              add [bx+si],al
000019BE  0000              add [bx+si],al
000019C0  0000              add [bx+si],al
000019C2  0000              add [bx+si],al
000019C4  0000              add [bx+si],al
000019C6  0002              add [bp+si],al
000019C8  0202              add al,[bp+si]
000019CA  0201              add al,[bx+di]
000019CC  0101              add [bx+di],ax
000019CE  0102              add [bp+si],ax
000019D0  0202              add al,[bp+si]
000019D2  0201              add al,[bx+di]
000019D4  0101              add [bx+di],ax
000019D6  0202              add al,[bp+si]
000019D8  0202              add al,[bp+si]
000019DA  0201              add al,[bx+di]
000019DC  0101              add [bx+di],ax
000019DE  0102              add [bp+si],ax
000019E0  0202              add al,[bp+si]
000019E2  0201              add al,[bx+di]
000019E4  0101              add [bx+di],ax
000019E6  0102              add [bp+si],ax
000019E8  0202              add al,[bp+si]
000019EA  0201              add al,[bx+di]
000019EC  0101              add [bx+di],ax
000019EE  0102              add [bp+si],ax
000019F0  0202              add al,[bp+si]
000019F2  0201              add al,[bx+di]
000019F4  0101              add [bx+di],ax
000019F6  0102              add [bp+si],ax
000019F8  0202              add al,[bp+si]
000019FA  0201              add al,[bx+di]
000019FC  0101              add [bx+di],ax
000019FE  0102              add [bp+si],ax
00001A00  0202              add al,[bp+si]
00001A02  0201              add al,[bx+di]
00001A04  0101              add [bx+di],ax
00001A06  0101              add [bx+di],ax
00001A08  0101              add [bx+di],ax
00001A0A  0101              add [bx+di],ax
00001A0C  0101              add [bx+di],ax
00001A0E  0101              add [bx+di],ax
00001A10  0101              add [bx+di],ax
00001A12  0101              add [bx+di],ax
00001A14  0101              add [bx+di],ax
00001A16  0101              add [bx+di],ax
00001A18  0101              add [bx+di],ax
00001A1A  0101              add [bx+di],ax
00001A1C  0101              add [bx+di],ax
00001A1E  0101              add [bx+di],ax
00001A20  0101              add [bx+di],ax
00001A22  0101              add [bx+di],ax
00001A24  0101              add [bx+di],ax
00001A26  0101              add [bx+di],ax
00001A28  0101              add [bx+di],ax
00001A2A  0101              add [bx+di],ax
00001A2C  0101              add [bx+di],ax
00001A2E  0101              add [bx+di],ax
00001A30  0101              add [bx+di],ax
00001A32  0101              add [bx+di],ax
00001A34  0101              add [bx+di],ax
00001A36  0102              add [bp+si],ax
00001A38  0202              add al,[bp+si]
00001A3A  0202              add al,[bp+si]
00001A3C  0202              add al,[bp+si]
00001A3E  0202              add al,[bp+si]
00001A40  0202              add al,[bp+si]
00001A42  0202              add al,[bp+si]
00001A44  0202              add al,[bp+si]
00001A46  0202              add al,[bp+si]
00001A48  0202              add al,[bp+si]
00001A4A  0202              add al,[bp+si]
00001A4C  0202              add al,[bp+si]
00001A4E  0202              add al,[bp+si]
00001A50  0202              add al,[bp+si]
00001A52  0202              add al,[bp+si]
00001A54  0202              add al,[bp+si]
00001A56  0201              add al,[bx+di]
00001A58  0101              add [bx+di],ax
00001A5A  0101              add [bx+di],ax
00001A5C  0101              add [bx+di],ax
00001A5E  0101              add [bx+di],ax
00001A60  0100              add [bx+si],ax
00001A62  0101              add [bx+di],ax
00001A64  0101              add [bx+di],ax
00001A66  0103              add [bp+di],ax
00001A68  0303              add ax,[bp+di]
00001A6A  0301              add ax,[bx+di]
00001A6C  0101              add [bx+di],ax
00001A6E  0101              add [bx+di],ax
00001A70  0101              add [bx+di],ax
00001A72  0101              add [bx+di],ax
00001A74  0101              add [bx+di],ax
00001A76  0101              add [bx+di],ax
00001A78  0101              add [bx+di],ax
00001A7A  0101              add [bx+di],ax
00001A7C  0101              add [bx+di],ax
00001A7E  0101              add [bx+di],ax
00001A80  0101              add [bx+di],ax
00001A82  0101              add [bx+di],ax
00001A84  0101              add [bx+di],ax
00001A86  0103              add [bp+di],ax
00001A88  0300              add ax,[bx+si]
00001A8A  0002              add [bp+si],al
00001A8C  0202              add al,[bp+si]
00001A8E  0204              add al,[si]
00001A90  0100              add [bx+si],ax
00001A92  0000              add [bx+si],al
00001A94  0000              add [bx+si],al
00001A96  0002              add [bp+si],al
00001A98  0202              add al,[bp+si]
00001A9A  0202              add al,[bp+si]
00001A9C  0201              add al,[bx+di]
00001A9E  0102              add [bp+si],ax
00001AA0  0202              add al,[bp+si]
00001AA2  0202              add al,[bp+si]
00001AA4  0202              add al,[bp+si]
00001AA6  0202              add al,[bp+si]
00001AA8  0202              add al,[bp+si]
00001AAA  0202              add al,[bp+si]
00001AAC  0202              add al,[bp+si]
00001AAE  0200              add al,[bx+si]
00001AB0  0000              add [bx+si],al
00001AB2  0001              add [bx+di],al
00001AB4  0101              add [bx+di],ax
00001AB6  0101              add [bx+di],ax
00001AB8  0201              add al,[bx+di]
00001ABA  0101              add [bx+di],ax
00001ABC  0102              add [bp+si],ax
00001ABE  0201              add al,[bx+di]
00001AC0  0101              add [bx+di],ax
00001AC2  0101              add [bx+di],ax
00001AC4  0102              add [bp+si],ax
00001AC6  0200              add al,[bx+si]
00001AC8  0000              add [bx+si],al
00001ACA  0001              add [bx+di],al
00001ACC  0100              add [bx+si],ax
00001ACE  0000              add [bx+si],al
00001AD0  0000              add [bx+si],al
00001AD2  0001              add [bx+di],al
00001AD4  0100              add [bx+si],ax
00001AD6  0000              add [bx+si],al
00001AD8  0000              add [bx+si],al
00001ADA  0001              add [bx+di],al
00001ADC  0100              add [bx+si],ax
00001ADE  0000              add [bx+si],al
00001AE0  0000              add [bx+si],al
00001AE2  0001              add [bx+di],al
00001AE4  0100              add [bx+si],ax
00001AE6  0000              add [bx+si],al
00001AE8  0000              add [bx+si],al
00001AEA  0001              add [bx+di],al
00001AEC  0100              add [bx+si],ax
00001AEE  0000              add [bx+si],al
00001AF0  0000              add [bx+si],al
00001AF2  0001              add [bx+di],al
00001AF4  0100              add [bx+si],ax
00001AF6  0000              add [bx+si],al
00001AF8  0000              add [bx+si],al
00001AFA  0001              add [bx+di],al
00001AFC  0100              add [bx+si],ax
00001AFE  0000              add [bx+si],al
00001B00  0000              add [bx+si],al
00001B02  0001              add [bx+di],al
00001B04  0100              add [bx+si],ax
00001B06  0000              add [bx+si],al
00001B08  0000              add [bx+si],al
00001B0A  0000              add [bx+si],al
00001B0C  0000              add [bx+si],al
00001B0E  0000              add [bx+si],al
00001B10  0000              add [bx+si],al
00001B12  0000              add [bx+si],al
00001B14  0000              add [bx+si],al
00001B16  0000              add [bx+si],al
00001B18  0000              add [bx+si],al
00001B1A  0000              add [bx+si],al
00001B1C  0000              add [bx+si],al
00001B1E  0000              add [bx+si],al
00001B20  0000              add [bx+si],al
00001B22  0000              add [bx+si],al
00001B24  0000              add [bx+si],al
00001B26  0000              add [bx+si],al
00001B28  0000              add [bx+si],al
00001B2A  0000              add [bx+si],al
00001B2C  0000              add [bx+si],al
00001B2E  0001              add [bx+di],al
00001B30  0101              add [bx+di],ax
00001B32  0100              add [bx+si],ax
00001B34  0000              add [bx+si],al
00001B36  0000              add [bx+si],al
00001B38  0000              add [bx+si],al
00001B3A  0000              add [bx+si],al
00001B3C  0000              add [bx+si],al
00001B3E  0000              add [bx+si],al
00001B40  0000              add [bx+si],al
00001B42  0000              add [bx+si],al
00001B44  0000              add [bx+si],al
00001B46  0001              add [bx+di],al
00001B48  0101              add [bx+di],ax
00001B4A  0100              add [bx+si],ax
00001B4C  0000              add [bx+si],al
00001B4E  0000              add [bx+si],al
00001B50  0000              add [bx+si],al
00001B52  0000              add [bx+si],al
00001B54  0000              add [bx+si],al
00001B56  0000              add [bx+si],al
00001B58  0000              add [bx+si],al
00001B5A  0000              add [bx+si],al
00001B5C  0000              add [bx+si],al
00001B5E  0000              add [bx+si],al
00001B60  0000              add [bx+si],al
00001B62  0000              add [bx+si],al
00001B64  0000              add [bx+si],al
00001B66  0000              add [bx+si],al
00001B68  0000              add [bx+si],al
00001B6A  0000              add [bx+si],al
00001B6C  0000              add [bx+si],al
00001B6E  0001              add [bx+di],al
00001B70  0100              add [bx+si],ax
00001B72  0000              add [bx+si],al
00001B74  0000              add [bx+si],al
00001B76  0001              add [bx+di],al
00001B78  0101              add [bx+di],ax
00001B7A  0101              add [bx+di],ax
00001B7C  0101              add [bx+di],ax
00001B7E  0101              add [bx+di],ax
00001B80  0101              add [bx+di],ax
00001B82  0101              add [bx+di],ax
00001B84  0101              add [bx+di],ax
00001B86  0100              add [bx+si],ax
00001B88  0000              add [bx+si],al
00001B8A  0000              add [bx+si],al
00001B8C  0001              add [bx+di],al
00001B8E  0100              add [bx+si],ax
00001B90  0000              add [bx+si],al
00001B92  0000              add [bx+si],al
00001B94  0000              add [bx+si],al
00001B96  0000              add [bx+si],al
00001B98  0000              add [bx+si],al
00001B9A  0000              add [bx+si],al
00001B9C  0000              add [bx+si],al
00001B9E  0000              add [bx+si],al
00001BA0  0000              add [bx+si],al
00001BA2  0000              add [bx+si],al
00001BA4  0000              add [bx+si],al
00001BA6  0000              add [bx+si],al
00001BA8  0000              add [bx+si],al
00001BAA  0000              add [bx+si],al
00001BAC  0000              add [bx+si],al
00001BAE  0000              add [bx+si],al
00001BB0  0000              add [bx+si],al
00001BB2  0000              add [bx+si],al
00001BB4  0000              add [bx+si],al
00001BB6  0000              add [bx+si],al
00001BB8  0000              add [bx+si],al
00001BBA  0000              add [bx+si],al
00001BBC  0000              add [bx+si],al
00001BBE  0000              add [bx+si],al
00001BC0  0000              add [bx+si],al
00001BC2  0000              add [bx+si],al
00001BC4  0000              add [bx+si],al
00001BC6  0001              add [bx+di],al
00001BC8  0101              add [bx+di],ax
00001BCA  0100              add [bx+si],ax
00001BCC  0000              add [bx+si],al
00001BCE  0001              add [bx+di],al
00001BD0  0101              add [bx+di],ax
00001BD2  0100              add [bx+si],ax
00001BD4  0000              add [bx+si],al
00001BD6  0001              add [bx+di],al
00001BD8  0101              add [bx+di],ax
00001BDA  0100              add [bx+si],ax
00001BDC  0000              add [bx+si],al
00001BDE  0001              add [bx+di],al
00001BE0  0101              add [bx+di],ax
00001BE2  0100              add [bx+si],ax
00001BE4  0000              add [bx+si],al
00001BE6  0001              add [bx+di],al
00001BE8  0101              add [bx+di],ax
00001BEA  0100              add [bx+si],ax
00001BEC  0000              add [bx+si],al
00001BEE  0001              add [bx+di],al
00001BF0  0101              add [bx+di],ax
00001BF2  0100              add [bx+si],ax
00001BF4  0000              add [bx+si],al
00001BF6  0001              add [bx+di],al
00001BF8  0101              add [bx+di],ax
00001BFA  0100              add [bx+si],ax
00001BFC  0000              add [bx+si],al
00001BFE  0001              add [bx+di],al
00001C00  0101              add [bx+di],ax
00001C02  0100              add [bx+si],ax
00001C04  0000              add [bx+si],al
00001C06  0000              add [bx+si],al
00001C08  0000              add [bx+si],al
00001C0A  0000              add [bx+si],al
00001C0C  0000              add [bx+si],al
00001C0E  0000              add [bx+si],al
00001C10  0000              add [bx+si],al
00001C12  0000              add [bx+si],al
00001C14  0000              add [bx+si],al
00001C16  0000              add [bx+si],al
00001C18  0000              add [bx+si],al
00001C1A  0000              add [bx+si],al
00001C1C  0000              add [bx+si],al
00001C1E  0000              add [bx+si],al
00001C20  0000              add [bx+si],al
00001C22  0000              add [bx+si],al
00001C24  0000              add [bx+si],al
00001C26  0000              add [bx+si],al
00001C28  0000              add [bx+si],al
00001C2A  0000              add [bx+si],al
00001C2C  0000              add [bx+si],al
00001C2E  0000              add [bx+si],al
00001C30  0000              add [bx+si],al
00001C32  0000              add [bx+si],al
00001C34  0000              add [bx+si],al
00001C36  0000              add [bx+si],al
00001C38  0000              add [bx+si],al
00001C3A  0000              add [bx+si],al
00001C3C  0000              add [bx+si],al
00001C3E  0000              add [bx+si],al
00001C40  0000              add [bx+si],al
00001C42  0000              add [bx+si],al
00001C44  0000              add [bx+si],al
00001C46  0001              add [bx+di],al
00001C48  0101              add [bx+di],ax
00001C4A  0101              add [bx+di],ax
00001C4C  0101              add [bx+di],ax
00001C4E  0101              add [bx+di],ax
00001C50  0101              add [bx+di],ax
00001C52  0101              add [bx+di],ax
00001C54  0101              add [bx+di],ax
00001C56  0100              add [bx+si],ax
00001C58  0000              add [bx+si],al
00001C5A  0000              add [bx+si],al
00001C5C  0000              add [bx+si],al
00001C5E  0000              add [bx+si],al
00001C60  0000              add [bx+si],al
00001C62  0000              add [bx+si],al
00001C64  0000              add [bx+si],al
00001C66  0000              add [bx+si],al
00001C68  0000              add [bx+si],al
00001C6A  0000              add [bx+si],al
00001C6C  0000              add [bx+si],al
00001C6E  0000              add [bx+si],al
00001C70  0000              add [bx+si],al
00001C72  0000              add [bx+si],al
00001C74  0000              add [bx+si],al
00001C76  0000              add [bx+si],al
00001C78  0000              add [bx+si],al
00001C7A  0000              add [bx+si],al
00001C7C  0000              add [bx+si],al
00001C7E  0000              add [bx+si],al
00001C80  0000              add [bx+si],al
00001C82  0000              add [bx+si],al
00001C84  0000              add [bx+si],al
00001C86  0001              add [bx+di],al
00001C88  0100              add [bx+si],ax
00001C8A  0001              add [bx+di],al
00001C8C  0101              add [bx+di],ax
00001C8E  0100              add [bx+si],ax
00001C90  0000              add [bx+si],al
00001C92  0000              add [bx+si],al
00001C94  0000              add [bx+si],al
00001C96  0001              add [bx+di],al
00001C98  0101              add [bx+di],ax
00001C9A  0100              add [bx+si],ax
00001C9C  0000              add [bx+si],al
00001C9E  0001              add [bx+di],al
00001CA0  0101              add [bx+di],ax
00001CA2  0101              add [bx+di],ax
00001CA4  0101              add [bx+di],ax
00001CA6  0100              add [bx+si],ax
00001CA8  0000              add [bx+si],al
00001CAA  0000              add [bx+si],al
00001CAC  0000              add [bx+si],al
00001CAE  0000              add [bx+si],al
00001CB0  0000              add [bx+si],al
00001CB2  0000              add [bx+si],al
00001CB4  0000              add [bx+si],al
00001CB6  0000              add [bx+si],al
00001CB8  0000              add [bx+si],al
00001CBA  0000              add [bx+si],al
00001CBC  0001              add [bx+di],al
00001CBE  0100              add [bx+si],ax
00001CC0  0000              add [bx+si],al
00001CC2  0000              add [bx+si],al
00001CC4  0001              add [bx+di],al
00001CC6  0100              add [bx+si],ax
00001CC8  0204              add al,[si]
00001CCA  06                push es
00001CCB  07                pop es
00001CCC  0809              or [bx+di],cl
00001CCE  0A0B              or cl,[bp+di]
00001CD0  0C08              or al,0x8
00001CD2  0003              add [bp+di],al
00001CD4  0004              add [si],al
00001CD6  0109              add [bx+di],cx
00001CD8  0909              or [bx+di],cx
00001CDA  0909              or [bx+di],cx
00001CDC  0309              add cx,[bx+di]
00001CDE  0909              or [bx+di],cx
00001CE0  0309              add cx,[bx+di]
00001CE2  0909              or [bx+di],cx
00001CE4  0909              or [bx+di],cx
00001CE6  0904              or [si],ax
00001CE8  0409              add al,0x9
00001CEA  0909              or [bx+di],cx
00001CEC  0909              or [bx+di],cx
00001CEE  0908              or [bx+si],cx
00001CF0  0801              or [bx+di],al
00001CF2  0000              add [bx+si],al
00001CF4  0100              add [bx+si],ax
00001CF6  0101              add [bx+di],ax
00001CF8  0000              add [bx+si],al
00001CFA  0101              add [bx+di],ax
00001CFC  0001              add [bx+di],al
00001CFE  0000              add [bx+si],al
00001D00  0100              add [bx+si],ax
00001D02  0101              add [bx+di],ax
00001D04  0001              add [bx+di],al
00001D06  0000              add [bx+si],al
00001D08  0101              add [bx+di],ax
00001D0A  0000              add [bx+si],al
00001D0C  0100              add [bx+si],ax
00001D0E  0101              add [bx+di],ax
00001D10  0000              add [bx+si],al
00001D12  0101              add [bx+di],ax
00001D14  0001              add [bx+di],al
00001D16  0000              add [bx+si],al
00001D18  0101              add [bx+di],ax
00001D1A  0000              add [bx+si],al
00001D1C  0100              add [bx+si],ax
00001D1E  0101              add [bx+di],ax
00001D20  0001              add [bx+di],al
00001D22  0000              add [bx+si],al
00001D24  0100              add [bx+si],ax
00001D26  0101              add [bx+di],ax
00001D28  0000              add [bx+si],al
00001D2A  0101              add [bx+di],ax
00001D2C  0001              add [bx+di],al
00001D2E  0000              add [bx+si],al
00001D30  0100              add [bx+si],ax
00001D32  0101              add [bx+di],ax
00001D34  0001              add [bx+di],al
00001D36  0000              add [bx+si],al
00001D38  0101              add [bx+di],ax
00001D3A  0000              add [bx+si],al
00001D3C  0100              add [bx+si],ax
00001D3E  0101              add [bx+di],ax
00001D40  0001              add [bx+di],al
00001D42  0000              add [bx+si],al
00001D44  0100              add [bx+si],ax
00001D46  0101              add [bx+di],ax
00001D48  0000              add [bx+si],al
00001D4A  0101              add [bx+di],ax
00001D4C  0001              add [bx+di],al
00001D4E  0000              add [bx+si],al
00001D50  0101              add [bx+di],ax
00001D52  0000              add [bx+si],al
00001D54  0100              add [bx+si],ax
00001D56  0101              add [bx+di],ax
00001D58  0000              add [bx+si],al
00001D5A  0101              add [bx+di],ax
00001D5C  0001              add [bx+di],al
00001D5E  0000              add [bx+si],al
00001D60  0100              add [bx+si],ax
00001D62  0101              add [bx+di],ax
00001D64  0001              add [bx+di],al
00001D66  0000              add [bx+si],al
00001D68  0101              add [bx+di],ax
00001D6A  0000              add [bx+si],al
00001D6C  0100              add [bx+si],ax
00001D6E  0101              add [bx+di],ax
00001D70  0000              add [bx+si],al
00001D72  0101              add [bx+di],ax
00001D74  0001              add [bx+di],al
00001D76  0000              add [bx+si],al
00001D78  0101              add [bx+di],ax
00001D7A  0000              add [bx+si],al
00001D7C  0100              add [bx+si],ax
00001D7E  0101              add [bx+di],ax
00001D80  0001              add [bx+di],al
00001D82  0000              add [bx+si],al
00001D84  0100              add [bx+si],ax
00001D86  0101              add [bx+di],ax
00001D88  0000              add [bx+si],al
00001D8A  0101              add [bx+di],ax
00001D8C  0001              add [bx+di],al
00001D8E  0000              add [bx+si],al
00001D90  0101              add [bx+di],ax
00001D92  0000              add [bx+si],al
00001D94  0100              add [bx+si],ax
00001D96  0101              add [bx+di],ax
00001D98  0000              add [bx+si],al
00001D9A  0101              add [bx+di],ax
00001D9C  0001              add [bx+di],al
00001D9E  0000              add [bx+si],al
00001DA0  0100              add [bx+si],ax
00001DA2  0101              add [bx+di],ax
00001DA4  0001              add [bx+di],al
00001DA6  0000              add [bx+si],al
00001DA8  0101              add [bx+di],ax
00001DAA  0000              add [bx+si],al
00001DAC  0100              add [bx+si],ax
00001DAE  0101              add [bx+di],ax
00001DB0  0001              add [bx+di],al
00001DB2  0000              add [bx+si],al
00001DB4  0100              add [bx+si],ax
00001DB6  0101              add [bx+di],ax
00001DB8  0000              add [bx+si],al
00001DBA  0101              add [bx+di],ax
00001DBC  0001              add [bx+di],al
00001DBE  0000              add [bx+si],al
00001DC0  0100              add [bx+si],ax
00001DC2  0101              add [bx+di],ax
00001DC4  0001              add [bx+di],al
00001DC6  0000              add [bx+si],al
00001DC8  0101              add [bx+di],ax
00001DCA  0000              add [bx+si],al
00001DCC  0100              add [bx+si],ax
00001DCE  0101              add [bx+di],ax
00001DD0  0000              add [bx+si],al
00001DD2  0101              add [bx+di],ax
00001DD4  0001              add [bx+di],al
00001DD6  0000              add [bx+si],al
00001DD8  0101              add [bx+di],ax
00001DDA  0000              add [bx+si],al
00001DDC  0100              add [bx+si],ax
00001DDE  0101              add [bx+di],ax
00001DE0  0001              add [bx+di],al
00001DE2  0000              add [bx+si],al
00001DE4  0100              add [bx+si],ax
00001DE6  0101              add [bx+di],ax
00001DE8  0000              add [bx+si],al
00001DEA  0101              add [bx+di],ax
00001DEC  0001              add [bx+di],al
00001DEE  0000              add [bx+si],al
00001DF0  01                db 0x01
